
phr_test:     file format elf64-littleaarch64


Disassembly of section .init:

0000000000001f58 <_init>:
    1f58:	d503201f 	nop
    1f5c:	a9bf7bfd 	stp	x29, x30, [sp, #-16]!
    1f60:	910003fd 	mov	x29, sp
    1f64:	94000074 	bl	2134 <call_weak_fn>
    1f68:	a8c17bfd 	ldp	x29, x30, [sp], #16
    1f6c:	d65f03c0 	ret

Disassembly of section .plt:

0000000000001f70 <.plt>:
    1f70:	a9bf7bf0 	stp	x16, x30, [sp, #-16]!
    1f74:	d0000190 	adrp	x16, 33000 <__FRAME_END__+0xf6bc>
    1f78:	f947fe11 	ldr	x17, [x16, #4088]
    1f7c:	913fe210 	add	x16, x16, #0xff8
    1f80:	d61f0220 	br	x17
    1f84:	d503201f 	nop
    1f88:	d503201f 	nop
    1f8c:	d503201f 	nop

0000000000001f90 <exit@plt>:
    1f90:	f0000190 	adrp	x16, 34000 <exit@GLIBC_2.17>
    1f94:	f9400211 	ldr	x17, [x16]
    1f98:	91000210 	add	x16, x16, #0x0
    1f9c:	d61f0220 	br	x17

0000000000001fa0 <__libc_start_main@plt>:
    1fa0:	f0000190 	adrp	x16, 34000 <exit@GLIBC_2.17>
    1fa4:	f9400611 	ldr	x17, [x16, #8]
    1fa8:	91002210 	add	x16, x16, #0x8
    1fac:	d61f0220 	br	x17

0000000000001fb0 <__stack_chk_fail@plt>:
    1fb0:	f0000190 	adrp	x16, 34000 <exit@GLIBC_2.17>
    1fb4:	f9400a11 	ldr	x17, [x16, #16]
    1fb8:	91004210 	add	x16, x16, #0x10
    1fbc:	d61f0220 	br	x17

0000000000001fc0 <__gmon_start__@plt>:
    1fc0:	f0000190 	adrp	x16, 34000 <exit@GLIBC_2.17>
    1fc4:	f9400e11 	ldr	x17, [x16, #24]
    1fc8:	91006210 	add	x16, x16, #0x18
    1fcc:	d61f0220 	br	x17

0000000000001fd0 <abort@plt>:
    1fd0:	f0000190 	adrp	x16, 34000 <exit@GLIBC_2.17>
    1fd4:	f9401211 	ldr	x17, [x16, #32]
    1fd8:	91008210 	add	x16, x16, #0x20
    1fdc:	d61f0220 	br	x17

0000000000001fe0 <strtoull@plt>:
    1fe0:	f0000190 	adrp	x16, 34000 <exit@GLIBC_2.17>
    1fe4:	f9401611 	ldr	x17, [x16, #40]
    1fe8:	9100a210 	add	x16, x16, #0x28
    1fec:	d61f0220 	br	x17

0000000000001ff0 <printf@plt>:
    1ff0:	f0000190 	adrp	x16, 34000 <exit@GLIBC_2.17>
    1ff4:	f9401a11 	ldr	x17, [x16, #48]
    1ff8:	9100c210 	add	x16, x16, #0x30
    1ffc:	d61f0220 	br	x17

0000000000002000 <fprintf@plt>:
    2000:	d0000190 	adrp	x16, 34000 <exit@GLIBC_2.17>
    2004:	f9401e11 	ldr	x17, [x16, #56]
    2008:	9100e210 	add	x16, x16, #0x38
    200c:	d61f0220 	br	x17

Disassembly of section .text:

0000000000002040 <main>:
    2040:	a9be7bfd 	stp	x29, x30, [sp, #-32]!
    2044:	910003fd 	mov	x29, sp
    2048:	a90153f3 	stp	x19, x20, [sp, #16]
    204c:	aa0103f3 	mov	x19, x1
    2050:	71000c1f 	cmp	w0, #0x3
    2054:	54000220 	b.eq	2098 <main+0x58>  // b.none
    2058:	b0000194 	adrp	x20, 33000 <__FRAME_END__+0xf6bc>
    205c:	f947e294 	ldr	x20, [x20, #4032]
    2060:	b0000101 	adrp	x1, 23000 <entry_255+0x80>
    2064:	f9400262 	ldr	x2, [x19]
    2068:	911ee021 	add	x1, x1, #0x7b8
    206c:	f9400280 	ldr	x0, [x20]
    2070:	97ffffe4 	bl	2000 <fprintf@plt>
    2074:	f9400262 	ldr	x2, [x19]
    2078:	b0000101 	adrp	x1, 23000 <entry_255+0x80>
    207c:	f9400280 	ldr	x0, [x20]
    2080:	911f8021 	add	x1, x1, #0x7e0
    2084:	97ffffdf 	bl	2000 <fprintf@plt>
    2088:	52800020 	mov	w0, #0x1                   	// #1
    208c:	a94153f3 	ldp	x19, x20, [sp, #16]
    2090:	a8c27bfd 	ldp	x29, x30, [sp], #32
    2094:	d65f03c0 	ret
    2098:	f9400420 	ldr	x0, [x1, #8]
    209c:	94000061 	bl	2220 <parse_u64>
    20a0:	aa0003e1 	mov	x1, x0
    20a4:	f9400a60 	ldr	x0, [x19, #16]
    20a8:	aa0103f3 	mov	x19, x1
    20ac:	9400005d 	bl	2220 <parse_u64>
    20b0:	aa0003f4 	mov	x20, x0
    20b4:	aa1403e1 	mov	x1, x20
    20b8:	aa1303e0 	mov	x0, x19
    20bc:	94000081 	bl	22c0 <phr_test>
    20c0:	d0000183 	adrp	x3, 34000 <exit@GLIBC_2.17>
    20c4:	aa1403e2 	mov	x2, x20
    20c8:	aa1303e1 	mov	x1, x19
    20cc:	b0000100 	adrp	x0, 23000 <entry_255+0x80>
    20d0:	b9405463 	ldr	w3, [x3, #84]
    20d4:	91200000 	add	x0, x0, #0x800
    20d8:	97ffffc6 	bl	1ff0 <printf@plt>
    20dc:	52800000 	mov	w0, #0x0                   	// #0
    20e0:	17ffffeb 	b	208c <main+0x4c>
    20e4:	d503201f 	nop
    20e8:	d503201f 	nop
    20ec:	d503201f 	nop
    20f0:	d503201f 	nop
    20f4:	d503201f 	nop
    20f8:	d503201f 	nop
    20fc:	d503201f 	nop

0000000000002100 <_start>:
    2100:	d503201f 	nop
    2104:	d280001d 	mov	x29, #0x0                   	// #0
    2108:	d280001e 	mov	x30, #0x0                   	// #0
    210c:	aa0003e5 	mov	x5, x0
    2110:	f94003e1 	ldr	x1, [sp]
    2114:	910023e2 	add	x2, sp, #0x8
    2118:	910003e6 	mov	x6, sp
    211c:	b0000180 	adrp	x0, 33000 <__FRAME_END__+0xf6bc>
    2120:	f947ec00 	ldr	x0, [x0, #4056]
    2124:	d2800003 	mov	x3, #0x0                   	// #0
    2128:	d2800004 	mov	x4, #0x0                   	// #0
    212c:	97ffff9d 	bl	1fa0 <__libc_start_main@plt>
    2130:	97ffffa8 	bl	1fd0 <abort@plt>

0000000000002134 <call_weak_fn>:
    2134:	b0000180 	adrp	x0, 33000 <__FRAME_END__+0xf6bc>
    2138:	f947e400 	ldr	x0, [x0, #4040]
    213c:	b4000040 	cbz	x0, 2144 <call_weak_fn+0x10>
    2140:	17ffffa0 	b	1fc0 <__gmon_start__@plt>
    2144:	d65f03c0 	ret
    2148:	d503201f 	nop
    214c:	d503201f 	nop

0000000000002150 <deregister_tm_clones>:
    2150:	d0000180 	adrp	x0, 34000 <exit@GLIBC_2.17>
    2154:	91014000 	add	x0, x0, #0x50
    2158:	d0000181 	adrp	x1, 34000 <exit@GLIBC_2.17>
    215c:	91014021 	add	x1, x1, #0x50
    2160:	eb00003f 	cmp	x1, x0
    2164:	540000c0 	b.eq	217c <deregister_tm_clones+0x2c>  // b.none
    2168:	b0000181 	adrp	x1, 33000 <__FRAME_END__+0xf6bc>
    216c:	f947d821 	ldr	x1, [x1, #4016]
    2170:	b4000061 	cbz	x1, 217c <deregister_tm_clones+0x2c>
    2174:	aa0103f0 	mov	x16, x1
    2178:	d61f0200 	br	x16
    217c:	d65f03c0 	ret

0000000000002180 <register_tm_clones>:
    2180:	d0000180 	adrp	x0, 34000 <exit@GLIBC_2.17>
    2184:	91014000 	add	x0, x0, #0x50
    2188:	d0000181 	adrp	x1, 34000 <exit@GLIBC_2.17>
    218c:	91014021 	add	x1, x1, #0x50
    2190:	cb000021 	sub	x1, x1, x0
    2194:	d37ffc22 	lsr	x2, x1, #63
    2198:	8b810c41 	add	x1, x2, x1, asr #3
    219c:	9341fc21 	asr	x1, x1, #1
    21a0:	b40000c1 	cbz	x1, 21b8 <register_tm_clones+0x38>
    21a4:	b0000182 	adrp	x2, 33000 <__FRAME_END__+0xf6bc>
    21a8:	f947f042 	ldr	x2, [x2, #4064]
    21ac:	b4000062 	cbz	x2, 21b8 <register_tm_clones+0x38>
    21b0:	aa0203f0 	mov	x16, x2
    21b4:	d61f0200 	br	x16
    21b8:	d65f03c0 	ret
    21bc:	d503201f 	nop

00000000000021c0 <__do_global_dtors_aux>:
    21c0:	a9be7bfd 	stp	x29, x30, [sp, #-32]!
    21c4:	910003fd 	mov	x29, sp
    21c8:	f9000bf3 	str	x19, [sp, #16]
    21cc:	d0000193 	adrp	x19, 34000 <exit@GLIBC_2.17>
    21d0:	39414260 	ldrb	w0, [x19, #80]
    21d4:	35000140 	cbnz	w0, 21fc <__do_global_dtors_aux+0x3c>
    21d8:	b0000181 	adrp	x1, 33000 <__FRAME_END__+0xf6bc>
    21dc:	f947dc21 	ldr	x1, [x1, #4024]
    21e0:	b4000081 	cbz	x1, 21f0 <__do_global_dtors_aux+0x30>
    21e4:	d0000180 	adrp	x0, 34000 <exit@GLIBC_2.17>
    21e8:	f9402400 	ldr	x0, [x0, #72]
    21ec:	d63f0020 	blr	x1
    21f0:	97ffffd8 	bl	2150 <deregister_tm_clones>
    21f4:	52800020 	mov	w0, #0x1                   	// #1
    21f8:	39014260 	strb	w0, [x19, #80]
    21fc:	f9400bf3 	ldr	x19, [sp, #16]
    2200:	a8c27bfd 	ldp	x29, x30, [sp], #32
    2204:	d65f03c0 	ret
    2208:	d503201f 	nop
    220c:	d503201f 	nop

0000000000002210 <frame_dummy>:
    2210:	17ffffdc 	b	2180 <register_tm_clones>
    2214:	d503201f 	nop
    2218:	d503201f 	nop
    221c:	d503201f 	nop

0000000000002220 <parse_u64>:
    2220:	a9bd7bfd 	stp	x29, x30, [sp, #-48]!
    2224:	52800002 	mov	w2, #0x0                   	// #0
    2228:	b0000183 	adrp	x3, 33000 <__FRAME_END__+0xf6bc>
    222c:	f947e863 	ldr	x3, [x3, #4048]
    2230:	910003fd 	mov	x29, sp
    2234:	f9000bf3 	str	x19, [sp, #16]
    2238:	aa0003f3 	mov	x19, x0
    223c:	910083e1 	add	x1, sp, #0x20
    2240:	f9400064 	ldr	x4, [x3]
    2244:	f90017e4 	str	x4, [sp, #40]
    2248:	d2800004 	mov	x4, #0x0                   	// #0
    224c:	f90013ff 	str	xzr, [sp, #32]
    2250:	97ffff64 	bl	1fe0 <strtoull@plt>
    2254:	39400261 	ldrb	w1, [x19]
    2258:	340001e1 	cbz	w1, 2294 <parse_u64+0x74>
    225c:	f94013e1 	ldr	x1, [sp, #32]
    2260:	b4000061 	cbz	x1, 226c <parse_u64+0x4c>
    2264:	39400021 	ldrb	w1, [x1]
    2268:	35000161 	cbnz	w1, 2294 <parse_u64+0x74>
    226c:	b0000181 	adrp	x1, 33000 <__FRAME_END__+0xf6bc>
    2270:	f947e821 	ldr	x1, [x1, #4048]
    2274:	f94017e3 	ldr	x3, [sp, #40]
    2278:	f9400022 	ldr	x2, [x1]
    227c:	eb020063 	subs	x3, x3, x2
    2280:	d2800002 	mov	x2, #0x0                   	// #0
    2284:	540001a1 	b.ne	22b8 <parse_u64+0x98>  // b.any
    2288:	f9400bf3 	ldr	x19, [sp, #16]
    228c:	a8c37bfd 	ldp	x29, x30, [sp], #48
    2290:	d65f03c0 	ret
    2294:	b0000180 	adrp	x0, 33000 <__FRAME_END__+0xf6bc>
    2298:	f947e000 	ldr	x0, [x0, #4032]
    229c:	aa1303e2 	mov	x2, x19
    22a0:	b0000101 	adrp	x1, 23000 <entry_255+0x80>
    22a4:	911e8021 	add	x1, x1, #0x7a0
    22a8:	f9400000 	ldr	x0, [x0]
    22ac:	97ffff55 	bl	2000 <fprintf@plt>
    22b0:	52800020 	mov	w0, #0x1                   	// #1
    22b4:	97ffff37 	bl	1f90 <exit@plt>
    22b8:	97ffff3e 	bl	1fb0 <__stack_chk_fail@plt>
    22bc:	d503201f 	nop

00000000000022c0 <phr_test>:
    22c0:	a9bf7bfd 	stp	x29, x30, [sp, #-16]!
    22c4:	910003fd 	mov	x29, sp
    22c8:	a9bf53f3 	stp	x19, x20, [sp, #-16]!
    22cc:	a9bf5bf5 	stp	x21, x22, [sp, #-16]!
    22d0:	aa0003f3 	mov	x19, x0
    22d4:	aa0103f4 	mov	x20, x1
    22d8:	f104029f 	cmp	x20, #0x100
    22dc:	54000049 	b.ls	22e4 <phr_test+0x24>  // b.plast
    22e0:	d2802014 	mov	x20, #0x100                 	// #256
    22e4:	52800035 	mov	w21, #0x1                   	// #1

00000000000022e8 <loop_top>:
    22e8:	b4000413 	cbz	x19, 2368 <loop_done>
    22ec:	2a1503f6 	mov	w22, w21
    22f0:	4a1636d6 	eor	w22, w22, w22, lsl #13
    22f4:	4a5646d6 	eor	w22, w22, w22, lsr #17
    22f8:	4a1616d6 	eor	w22, w22, w22, lsl #5
    22fc:	2a1603f5 	mov	w21, w22
    2300:	120002d6 	and	w22, w22, #0x1
    2304:	9000000a 	adrp	x10, 2000 <fprintf@plt>
    2308:	910c814a 	add	x10, x10, #0x320
    230c:	9000000b 	adrp	x11, 2000 <fprintf@plt>
    2310:	910c916b 	add	x11, x11, #0x324
    2314:	710002df 	cmp	w22, #0x0
    2318:	9a8b014c 	csel	x12, x10, x11, eq  // eq = none
    231c:	d61f0180 	br	x12

0000000000002320 <L0>:
    2320:	d503201f 	nop

0000000000002324 <L1>:
    2324:	d503201f 	nop
    2328:	9000000d 	adrp	x13, 2000 <fprintf@plt>
    232c:	910de1ad 	add	x13, x13, #0x378
    2330:	f87479ae 	ldr	x14, [x13, x20, lsl #3]
    2334:	d61f01c0 	br	x14

0000000000002338 <dummy_done>:
    2338:	710002df 	cmp	w22, #0x0
    233c:	54000061 	b.ne	2348 <probe_taken>  // b.any
    2340:	d503201f 	nop
    2344:	14000002 	b	234c <probe_done>

0000000000002348 <probe_taken>:
    2348:	d503201f 	nop

000000000000234c <probe_done>:
    234c:	d0000183 	adrp	x3, 34000 <exit@GLIBC_2.17>
    2350:	91015063 	add	x3, x3, #0x54
    2354:	b9400064 	ldr	w4, [x3]
    2358:	11000484 	add	w4, w4, #0x1
    235c:	b9000064 	str	w4, [x3]
    2360:	f1000673 	subs	x19, x19, #0x1
    2364:	54fffc21 	b.ne	22e8 <loop_top>  // b.any

0000000000002368 <loop_done>:
    2368:	a8c15bf5 	ldp	x21, x22, [sp], #16
    236c:	a8c153f3 	ldp	x19, x20, [sp], #16
    2370:	a8c17bfd 	ldp	x29, x30, [sp], #16
    2374:	d65f03c0 	ret

0000000000002378 <dummy_jumptable>:
    2378:	00002b80 	udf	#11136
    237c:	00000000 	udf	#0
    2380:	00002b90 	udf	#11152
    2384:	00000000 	udf	#0
    2388:	00002ba0 	udf	#11168
    238c:	00000000 	udf	#0
    2390:	00002bb0 	udf	#11184
    2394:	00000000 	udf	#0
    2398:	00002bc0 	udf	#11200
    239c:	00000000 	udf	#0
    23a0:	00002be0 	udf	#11232
    23a4:	00000000 	udf	#0
    23a8:	00002c00 	udf	#11264
    23ac:	00000000 	udf	#0
    23b0:	00002c20 	udf	#11296
    23b4:	00000000 	udf	#0
    23b8:	00002c40 	udf	#11328
    23bc:	00000000 	udf	#0
    23c0:	00002c70 	udf	#11376
    23c4:	00000000 	udf	#0
    23c8:	00002ca0 	udf	#11424
    23cc:	00000000 	udf	#0
    23d0:	00002cd0 	udf	#11472
    23d4:	00000000 	udf	#0
    23d8:	00002d00 	udf	#11520
    23dc:	00000000 	udf	#0
    23e0:	00002d40 	udf	#11584
    23e4:	00000000 	udf	#0
    23e8:	00002d80 	udf	#11648
    23ec:	00000000 	udf	#0
    23f0:	00002dc0 	udf	#11712
    23f4:	00000000 	udf	#0
    23f8:	00002e00 	udf	#11776
    23fc:	00000000 	udf	#0
    2400:	00002e50 	udf	#11856
    2404:	00000000 	udf	#0
    2408:	00002ea0 	udf	#11936
    240c:	00000000 	udf	#0
    2410:	00002ef0 	udf	#12016
    2414:	00000000 	udf	#0
    2418:	00002f40 	udf	#12096
    241c:	00000000 	udf	#0
    2420:	00002fa0 	udf	#12192
    2424:	00000000 	udf	#0
    2428:	00003000 	udf	#12288
    242c:	00000000 	udf	#0
    2430:	00003060 	udf	#12384
    2434:	00000000 	udf	#0
    2438:	000030c0 	udf	#12480
    243c:	00000000 	udf	#0
    2440:	00003130 	udf	#12592
    2444:	00000000 	udf	#0
    2448:	000031a0 	udf	#12704
    244c:	00000000 	udf	#0
    2450:	00003210 	udf	#12816
    2454:	00000000 	udf	#0
    2458:	00003280 	udf	#12928
    245c:	00000000 	udf	#0
    2460:	00003300 	udf	#13056
    2464:	00000000 	udf	#0
    2468:	00003380 	udf	#13184
    246c:	00000000 	udf	#0
    2470:	00003400 	udf	#13312
    2474:	00000000 	udf	#0
    2478:	00003480 	udf	#13440
    247c:	00000000 	udf	#0
    2480:	00003510 	udf	#13584
    2484:	00000000 	udf	#0
    2488:	000035a0 	udf	#13728
    248c:	00000000 	udf	#0
    2490:	00003630 	udf	#13872
    2494:	00000000 	udf	#0
    2498:	000036c0 	udf	#14016
    249c:	00000000 	udf	#0
    24a0:	00003760 	udf	#14176
    24a4:	00000000 	udf	#0
    24a8:	00003800 	udf	#14336
    24ac:	00000000 	udf	#0
    24b0:	000038a0 	udf	#14496
    24b4:	00000000 	udf	#0
    24b8:	00003940 	udf	#14656
    24bc:	00000000 	udf	#0
    24c0:	000039f0 	udf	#14832
    24c4:	00000000 	udf	#0
    24c8:	00003aa0 	udf	#15008
    24cc:	00000000 	udf	#0
    24d0:	00003b50 	udf	#15184
    24d4:	00000000 	udf	#0
    24d8:	00003c00 	udf	#15360
    24dc:	00000000 	udf	#0
    24e0:	00003cc0 	udf	#15552
    24e4:	00000000 	udf	#0
    24e8:	00003d80 	udf	#15744
    24ec:	00000000 	udf	#0
    24f0:	00003e40 	udf	#15936
    24f4:	00000000 	udf	#0
    24f8:	00003f00 	udf	#16128
    24fc:	00000000 	udf	#0
    2500:	00003fd0 	udf	#16336
    2504:	00000000 	udf	#0
    2508:	000040a0 	udf	#16544
    250c:	00000000 	udf	#0
    2510:	00004170 	udf	#16752
    2514:	00000000 	udf	#0
    2518:	00004240 	udf	#16960
    251c:	00000000 	udf	#0
    2520:	00004320 	udf	#17184
    2524:	00000000 	udf	#0
    2528:	00004400 	udf	#17408
    252c:	00000000 	udf	#0
    2530:	000044e0 	udf	#17632
    2534:	00000000 	udf	#0
    2538:	000045c0 	udf	#17856
    253c:	00000000 	udf	#0
    2540:	000046b0 	udf	#18096
    2544:	00000000 	udf	#0
    2548:	000047a0 	udf	#18336
    254c:	00000000 	udf	#0
    2550:	00004890 	udf	#18576
    2554:	00000000 	udf	#0
    2558:	00004980 	udf	#18816
    255c:	00000000 	udf	#0
    2560:	00004a80 	udf	#19072
    2564:	00000000 	udf	#0
    2568:	00004b80 	udf	#19328
    256c:	00000000 	udf	#0
    2570:	00004c80 	udf	#19584
    2574:	00000000 	udf	#0
    2578:	00004d80 	udf	#19840
    257c:	00000000 	udf	#0
    2580:	00004e90 	udf	#20112
    2584:	00000000 	udf	#0
    2588:	00004fa0 	udf	#20384
    258c:	00000000 	udf	#0
    2590:	000050b0 	udf	#20656
    2594:	00000000 	udf	#0
    2598:	000051c0 	udf	#20928
    259c:	00000000 	udf	#0
    25a0:	000052e0 	udf	#21216
    25a4:	00000000 	udf	#0
    25a8:	00005400 	udf	#21504
    25ac:	00000000 	udf	#0
    25b0:	00005520 	udf	#21792
    25b4:	00000000 	udf	#0
    25b8:	00005640 	udf	#22080
    25bc:	00000000 	udf	#0
    25c0:	00005770 	udf	#22384
    25c4:	00000000 	udf	#0
    25c8:	000058a0 	udf	#22688
    25cc:	00000000 	udf	#0
    25d0:	000059d0 	udf	#22992
    25d4:	00000000 	udf	#0
    25d8:	00005b00 	udf	#23296
    25dc:	00000000 	udf	#0
    25e0:	00005c40 	udf	#23616
    25e4:	00000000 	udf	#0
    25e8:	00005d80 	udf	#23936
    25ec:	00000000 	udf	#0
    25f0:	00005ec0 	udf	#24256
    25f4:	00000000 	udf	#0
    25f8:	00006000 	udf	#24576
    25fc:	00000000 	udf	#0
    2600:	00006150 	udf	#24912
    2604:	00000000 	udf	#0
    2608:	000062a0 	udf	#25248
    260c:	00000000 	udf	#0
    2610:	000063f0 	udf	#25584
    2614:	00000000 	udf	#0
    2618:	00006540 	udf	#25920
    261c:	00000000 	udf	#0
    2620:	000066a0 	udf	#26272
    2624:	00000000 	udf	#0
    2628:	00006800 	udf	#26624
    262c:	00000000 	udf	#0
    2630:	00006960 	udf	#26976
    2634:	00000000 	udf	#0
    2638:	00006ac0 	udf	#27328
    263c:	00000000 	udf	#0
    2640:	00006c30 	udf	#27696
    2644:	00000000 	udf	#0
    2648:	00006da0 	udf	#28064
    264c:	00000000 	udf	#0
    2650:	00006f10 	udf	#28432
    2654:	00000000 	udf	#0
    2658:	00007080 	udf	#28800
    265c:	00000000 	udf	#0
    2660:	00007200 	udf	#29184
    2664:	00000000 	udf	#0
    2668:	00007380 	udf	#29568
    266c:	00000000 	udf	#0
    2670:	00007500 	udf	#29952
    2674:	00000000 	udf	#0
    2678:	00007680 	udf	#30336
    267c:	00000000 	udf	#0
    2680:	00007810 	udf	#30736
    2684:	00000000 	udf	#0
    2688:	000079a0 	udf	#31136
    268c:	00000000 	udf	#0
    2690:	00007b30 	udf	#31536
    2694:	00000000 	udf	#0
    2698:	00007cc0 	udf	#31936
    269c:	00000000 	udf	#0
    26a0:	00007e60 	udf	#32352
    26a4:	00000000 	udf	#0
    26a8:	00008000 	udf	#32768
    26ac:	00000000 	udf	#0
    26b0:	000081a0 	udf	#33184
    26b4:	00000000 	udf	#0
    26b8:	00008340 	udf	#33600
    26bc:	00000000 	udf	#0
    26c0:	000084f0 	udf	#34032
    26c4:	00000000 	udf	#0
    26c8:	000086a0 	udf	#34464
    26cc:	00000000 	udf	#0
    26d0:	00008850 	udf	#34896
    26d4:	00000000 	udf	#0
    26d8:	00008a00 	udf	#35328
    26dc:	00000000 	udf	#0
    26e0:	00008bc0 	udf	#35776
    26e4:	00000000 	udf	#0
    26e8:	00008d80 	udf	#36224
    26ec:	00000000 	udf	#0
    26f0:	00008f40 	udf	#36672
    26f4:	00000000 	udf	#0
    26f8:	00009100 	udf	#37120
    26fc:	00000000 	udf	#0
    2700:	000092d0 	udf	#37584
    2704:	00000000 	udf	#0
    2708:	000094a0 	udf	#38048
    270c:	00000000 	udf	#0
    2710:	00009670 	udf	#38512
    2714:	00000000 	udf	#0
    2718:	00009840 	udf	#38976
    271c:	00000000 	udf	#0
    2720:	00009a20 	udf	#39456
    2724:	00000000 	udf	#0
    2728:	00009c00 	udf	#39936
    272c:	00000000 	udf	#0
    2730:	00009de0 	udf	#40416
    2734:	00000000 	udf	#0
    2738:	00009fc0 	udf	#40896
    273c:	00000000 	udf	#0
    2740:	0000a1b0 	udf	#41392
    2744:	00000000 	udf	#0
    2748:	0000a3a0 	udf	#41888
    274c:	00000000 	udf	#0
    2750:	0000a590 	udf	#42384
    2754:	00000000 	udf	#0
    2758:	0000a780 	udf	#42880
    275c:	00000000 	udf	#0
    2760:	0000a980 	udf	#43392
    2764:	00000000 	udf	#0
    2768:	0000ab80 	udf	#43904
    276c:	00000000 	udf	#0
    2770:	0000ad80 	udf	#44416
    2774:	00000000 	udf	#0
    2778:	0000af80 	udf	#44928
    277c:	00000000 	udf	#0
    2780:	0000b190 	udf	#45456
    2784:	00000000 	udf	#0
    2788:	0000b3a0 	udf	#45984
    278c:	00000000 	udf	#0
    2790:	0000b5b0 	udf	#46512
    2794:	00000000 	udf	#0
    2798:	0000b7c0 	udf	#47040
    279c:	00000000 	udf	#0
    27a0:	0000b9e0 	udf	#47584
    27a4:	00000000 	udf	#0
    27a8:	0000bc00 	udf	#48128
    27ac:	00000000 	udf	#0
    27b0:	0000be20 	udf	#48672
    27b4:	00000000 	udf	#0
    27b8:	0000c040 	udf	#49216
    27bc:	00000000 	udf	#0
    27c0:	0000c270 	udf	#49776
    27c4:	00000000 	udf	#0
    27c8:	0000c4a0 	udf	#50336
    27cc:	00000000 	udf	#0
    27d0:	0000c6d0 	udf	#50896
    27d4:	00000000 	udf	#0
    27d8:	0000c900 	udf	#51456
    27dc:	00000000 	udf	#0
    27e0:	0000cb40 	udf	#52032
    27e4:	00000000 	udf	#0
    27e8:	0000cd80 	udf	#52608
    27ec:	00000000 	udf	#0
    27f0:	0000cfc0 	udf	#53184
    27f4:	00000000 	udf	#0
    27f8:	0000d200 	udf	#53760
    27fc:	00000000 	udf	#0
    2800:	0000d450 	udf	#54352
    2804:	00000000 	udf	#0
    2808:	0000d6a0 	udf	#54944
    280c:	00000000 	udf	#0
    2810:	0000d8f0 	udf	#55536
    2814:	00000000 	udf	#0
    2818:	0000db40 	udf	#56128
    281c:	00000000 	udf	#0
    2820:	0000dda0 	udf	#56736
    2824:	00000000 	udf	#0
    2828:	0000e000 	udf	#57344
    282c:	00000000 	udf	#0
    2830:	0000e260 	udf	#57952
    2834:	00000000 	udf	#0
    2838:	0000e4c0 	udf	#58560
    283c:	00000000 	udf	#0
    2840:	0000e730 	udf	#59184
    2844:	00000000 	udf	#0
    2848:	0000e9a0 	udf	#59808
    284c:	00000000 	udf	#0
    2850:	0000ec10 	udf	#60432
    2854:	00000000 	udf	#0
    2858:	0000ee80 	udf	#61056
    285c:	00000000 	udf	#0
    2860:	0000f100 	udf	#61696
    2864:	00000000 	udf	#0
    2868:	0000f380 	udf	#62336
    286c:	00000000 	udf	#0
    2870:	0000f600 	udf	#62976
    2874:	00000000 	udf	#0
    2878:	0000f880 	udf	#63616
    287c:	00000000 	udf	#0
    2880:	0000fb10 	udf	#64272
    2884:	00000000 	udf	#0
    2888:	0000fda0 	udf	#64928
    288c:	00000000 	udf	#0
    2890:	00010030 	.inst	0x00010030 ; undefined
    2894:	00000000 	udf	#0
    2898:	000102c0 	.inst	0x000102c0 ; undefined
    289c:	00000000 	udf	#0
    28a0:	00010560 	.inst	0x00010560 ; undefined
    28a4:	00000000 	udf	#0
    28a8:	00010800 	.inst	0x00010800 ; undefined
    28ac:	00000000 	udf	#0
    28b0:	00010aa0 	.inst	0x00010aa0 ; undefined
    28b4:	00000000 	udf	#0
    28b8:	00010d40 	.inst	0x00010d40 ; undefined
    28bc:	00000000 	udf	#0
    28c0:	00010ff0 	.inst	0x00010ff0 ; undefined
    28c4:	00000000 	udf	#0
    28c8:	000112a0 	.inst	0x000112a0 ; undefined
    28cc:	00000000 	udf	#0
    28d0:	00011550 	.inst	0x00011550 ; undefined
    28d4:	00000000 	udf	#0
    28d8:	00011800 	.inst	0x00011800 ; undefined
    28dc:	00000000 	udf	#0
    28e0:	00011ac0 	.inst	0x00011ac0 ; undefined
    28e4:	00000000 	udf	#0
    28e8:	00011d80 	.inst	0x00011d80 ; undefined
    28ec:	00000000 	udf	#0
    28f0:	00012040 	.inst	0x00012040 ; undefined
    28f4:	00000000 	udf	#0
    28f8:	00012300 	.inst	0x00012300 ; undefined
    28fc:	00000000 	udf	#0
    2900:	000125d0 	.inst	0x000125d0 ; undefined
    2904:	00000000 	udf	#0
    2908:	000128a0 	.inst	0x000128a0 ; undefined
    290c:	00000000 	udf	#0
    2910:	00012b70 	.inst	0x00012b70 ; undefined
    2914:	00000000 	udf	#0
    2918:	00012e40 	.inst	0x00012e40 ; undefined
    291c:	00000000 	udf	#0
    2920:	00013120 	.inst	0x00013120 ; undefined
    2924:	00000000 	udf	#0
    2928:	00013400 	.inst	0x00013400 ; undefined
    292c:	00000000 	udf	#0
    2930:	000136e0 	.inst	0x000136e0 ; undefined
    2934:	00000000 	udf	#0
    2938:	000139c0 	.inst	0x000139c0 ; undefined
    293c:	00000000 	udf	#0
    2940:	00013cb0 	.inst	0x00013cb0 ; undefined
    2944:	00000000 	udf	#0
    2948:	00013fa0 	.inst	0x00013fa0 ; undefined
    294c:	00000000 	udf	#0
    2950:	00014290 	.inst	0x00014290 ; undefined
    2954:	00000000 	udf	#0
    2958:	00014580 	.inst	0x00014580 ; undefined
    295c:	00000000 	udf	#0
    2960:	00014880 	.inst	0x00014880 ; undefined
    2964:	00000000 	udf	#0
    2968:	00014b80 	.inst	0x00014b80 ; undefined
    296c:	00000000 	udf	#0
    2970:	00014e80 	.inst	0x00014e80 ; undefined
    2974:	00000000 	udf	#0
    2978:	00015180 	.inst	0x00015180 ; undefined
    297c:	00000000 	udf	#0
    2980:	00015490 	.inst	0x00015490 ; undefined
    2984:	00000000 	udf	#0
    2988:	000157a0 	.inst	0x000157a0 ; undefined
    298c:	00000000 	udf	#0
    2990:	00015ab0 	.inst	0x00015ab0 ; undefined
    2994:	00000000 	udf	#0
    2998:	00015dc0 	.inst	0x00015dc0 ; undefined
    299c:	00000000 	udf	#0
    29a0:	000160e0 	.inst	0x000160e0 ; undefined
    29a4:	00000000 	udf	#0
    29a8:	00016400 	.inst	0x00016400 ; undefined
    29ac:	00000000 	udf	#0
    29b0:	00016720 	.inst	0x00016720 ; undefined
    29b4:	00000000 	udf	#0
    29b8:	00016a40 	.inst	0x00016a40 ; undefined
    29bc:	00000000 	udf	#0
    29c0:	00016d70 	.inst	0x00016d70 ; undefined
    29c4:	00000000 	udf	#0
    29c8:	000170a0 	.inst	0x000170a0 ; undefined
    29cc:	00000000 	udf	#0
    29d0:	000173d0 	.inst	0x000173d0 ; undefined
    29d4:	00000000 	udf	#0
    29d8:	00017700 	.inst	0x00017700 ; undefined
    29dc:	00000000 	udf	#0
    29e0:	00017a40 	.inst	0x00017a40 ; undefined
    29e4:	00000000 	udf	#0
    29e8:	00017d80 	.inst	0x00017d80 ; undefined
    29ec:	00000000 	udf	#0
    29f0:	000180c0 	.inst	0x000180c0 ; undefined
    29f4:	00000000 	udf	#0
    29f8:	00018400 	.inst	0x00018400 ; undefined
    29fc:	00000000 	udf	#0
    2a00:	00018750 	.inst	0x00018750 ; undefined
    2a04:	00000000 	udf	#0
    2a08:	00018aa0 	.inst	0x00018aa0 ; undefined
    2a0c:	00000000 	udf	#0
    2a10:	00018df0 	.inst	0x00018df0 ; undefined
    2a14:	00000000 	udf	#0
    2a18:	00019140 	.inst	0x00019140 ; undefined
    2a1c:	00000000 	udf	#0
    2a20:	000194a0 	.inst	0x000194a0 ; undefined
    2a24:	00000000 	udf	#0
    2a28:	00019800 	.inst	0x00019800 ; undefined
    2a2c:	00000000 	udf	#0
    2a30:	00019b60 	.inst	0x00019b60 ; undefined
    2a34:	00000000 	udf	#0
    2a38:	00019ec0 	.inst	0x00019ec0 ; undefined
    2a3c:	00000000 	udf	#0
    2a40:	0001a230 	.inst	0x0001a230 ; undefined
    2a44:	00000000 	udf	#0
    2a48:	0001a5a0 	.inst	0x0001a5a0 ; undefined
    2a4c:	00000000 	udf	#0
    2a50:	0001a910 	.inst	0x0001a910 ; undefined
    2a54:	00000000 	udf	#0
    2a58:	0001ac80 	.inst	0x0001ac80 ; undefined
    2a5c:	00000000 	udf	#0
    2a60:	0001b000 	.inst	0x0001b000 ; undefined
    2a64:	00000000 	udf	#0
    2a68:	0001b380 	.inst	0x0001b380 ; undefined
    2a6c:	00000000 	udf	#0
    2a70:	0001b700 	.inst	0x0001b700 ; undefined
    2a74:	00000000 	udf	#0
    2a78:	0001ba80 	.inst	0x0001ba80 ; undefined
    2a7c:	00000000 	udf	#0
    2a80:	0001be10 	.inst	0x0001be10 ; undefined
    2a84:	00000000 	udf	#0
    2a88:	0001c1a0 	.inst	0x0001c1a0 ; undefined
    2a8c:	00000000 	udf	#0
    2a90:	0001c530 	.inst	0x0001c530 ; undefined
    2a94:	00000000 	udf	#0
    2a98:	0001c8c0 	.inst	0x0001c8c0 ; undefined
    2a9c:	00000000 	udf	#0
    2aa0:	0001cc60 	.inst	0x0001cc60 ; undefined
    2aa4:	00000000 	udf	#0
    2aa8:	0001d000 	.inst	0x0001d000 ; undefined
    2aac:	00000000 	udf	#0
    2ab0:	0001d3a0 	.inst	0x0001d3a0 ; undefined
    2ab4:	00000000 	udf	#0
    2ab8:	0001d740 	.inst	0x0001d740 ; undefined
    2abc:	00000000 	udf	#0
    2ac0:	0001daf0 	.inst	0x0001daf0 ; undefined
    2ac4:	00000000 	udf	#0
    2ac8:	0001dea0 	.inst	0x0001dea0 ; undefined
    2acc:	00000000 	udf	#0
    2ad0:	0001e250 	.inst	0x0001e250 ; undefined
    2ad4:	00000000 	udf	#0
    2ad8:	0001e600 	.inst	0x0001e600 ; undefined
    2adc:	00000000 	udf	#0
    2ae0:	0001e9c0 	.inst	0x0001e9c0 ; undefined
    2ae4:	00000000 	udf	#0
    2ae8:	0001ed80 	.inst	0x0001ed80 ; undefined
    2aec:	00000000 	udf	#0
    2af0:	0001f140 	.inst	0x0001f140 ; undefined
    2af4:	00000000 	udf	#0
    2af8:	0001f500 	.inst	0x0001f500 ; undefined
    2afc:	00000000 	udf	#0
    2b00:	0001f8d0 	.inst	0x0001f8d0 ; undefined
    2b04:	00000000 	udf	#0
    2b08:	0001fca0 	.inst	0x0001fca0 ; undefined
    2b0c:	00000000 	udf	#0
    2b10:	00020070 	.inst	0x00020070 ; undefined
    2b14:	00000000 	udf	#0
    2b18:	00020440 	.inst	0x00020440 ; undefined
    2b1c:	00000000 	udf	#0
    2b20:	00020820 	.inst	0x00020820 ; undefined
    2b24:	00000000 	udf	#0
    2b28:	00020c00 	.inst	0x00020c00 ; undefined
    2b2c:	00000000 	udf	#0
    2b30:	00020fe0 	.inst	0x00020fe0 ; undefined
    2b34:	00000000 	udf	#0
    2b38:	000213c0 	.inst	0x000213c0 ; undefined
    2b3c:	00000000 	udf	#0
    2b40:	000217b0 	.inst	0x000217b0 ; undefined
    2b44:	00000000 	udf	#0
    2b48:	00021ba0 	.inst	0x00021ba0 ; undefined
    2b4c:	00000000 	udf	#0
    2b50:	00021f90 	.inst	0x00021f90 ; undefined
    2b54:	00000000 	udf	#0
    2b58:	00022380 	.inst	0x00022380 ; undefined
    2b5c:	00000000 	udf	#0
    2b60:	00022780 	.inst	0x00022780 ; undefined
    2b64:	00000000 	udf	#0
    2b68:	00022b80 	.inst	0x00022b80 ; undefined
    2b6c:	00000000 	udf	#0
    2b70:	00022f80 	.inst	0x00022f80 ; undefined
    2b74:	00000000 	udf	#0
    2b78:	00023380 	.inst	0x00023380 ; undefined
    2b7c:	00000000 	udf	#0

0000000000002b80 <entry_0>:
    2b80:	17fffdee 	b	2338 <dummy_done>
    2b84:	d503201f 	nop
    2b88:	d503201f 	nop
    2b8c:	d503201f 	nop

0000000000002b90 <entry_1>:
    2b90:	14000001 	b	2b94 <entry_1+0x4>
    2b94:	17fffde9 	b	2338 <dummy_done>
    2b98:	d503201f 	nop
    2b9c:	d503201f 	nop

0000000000002ba0 <entry_2>:
    2ba0:	14000001 	b	2ba4 <entry_2+0x4>
    2ba4:	14000001 	b	2ba8 <entry_2+0x8>
    2ba8:	17fffde4 	b	2338 <dummy_done>
    2bac:	d503201f 	nop

0000000000002bb0 <entry_3>:
    2bb0:	14000001 	b	2bb4 <entry_3+0x4>
    2bb4:	14000001 	b	2bb8 <entry_3+0x8>
    2bb8:	14000001 	b	2bbc <entry_3+0xc>
    2bbc:	17fffddf 	b	2338 <dummy_done>

0000000000002bc0 <entry_4>:
    2bc0:	14000001 	b	2bc4 <entry_4+0x4>
    2bc4:	14000001 	b	2bc8 <entry_4+0x8>
    2bc8:	14000001 	b	2bcc <entry_4+0xc>
    2bcc:	14000001 	b	2bd0 <entry_4+0x10>
    2bd0:	17fffdda 	b	2338 <dummy_done>
    2bd4:	d503201f 	nop
    2bd8:	d503201f 	nop
    2bdc:	d503201f 	nop

0000000000002be0 <entry_5>:
    2be0:	14000001 	b	2be4 <entry_5+0x4>
    2be4:	14000001 	b	2be8 <entry_5+0x8>
    2be8:	14000001 	b	2bec <entry_5+0xc>
    2bec:	14000001 	b	2bf0 <entry_5+0x10>
    2bf0:	14000001 	b	2bf4 <entry_5+0x14>
    2bf4:	17fffdd1 	b	2338 <dummy_done>
    2bf8:	d503201f 	nop
    2bfc:	d503201f 	nop

0000000000002c00 <entry_6>:
    2c00:	14000001 	b	2c04 <entry_6+0x4>
    2c04:	14000001 	b	2c08 <entry_6+0x8>
    2c08:	14000001 	b	2c0c <entry_6+0xc>
    2c0c:	14000001 	b	2c10 <entry_6+0x10>
    2c10:	14000001 	b	2c14 <entry_6+0x14>
    2c14:	14000001 	b	2c18 <entry_6+0x18>
    2c18:	17fffdc8 	b	2338 <dummy_done>
    2c1c:	d503201f 	nop

0000000000002c20 <entry_7>:
    2c20:	14000001 	b	2c24 <entry_7+0x4>
    2c24:	14000001 	b	2c28 <entry_7+0x8>
    2c28:	14000001 	b	2c2c <entry_7+0xc>
    2c2c:	14000001 	b	2c30 <entry_7+0x10>
    2c30:	14000001 	b	2c34 <entry_7+0x14>
    2c34:	14000001 	b	2c38 <entry_7+0x18>
    2c38:	14000001 	b	2c3c <entry_7+0x1c>
    2c3c:	17fffdbf 	b	2338 <dummy_done>

0000000000002c40 <entry_8>:
    2c40:	14000001 	b	2c44 <entry_8+0x4>
    2c44:	14000001 	b	2c48 <entry_8+0x8>
    2c48:	14000001 	b	2c4c <entry_8+0xc>
    2c4c:	14000001 	b	2c50 <entry_8+0x10>
    2c50:	14000001 	b	2c54 <entry_8+0x14>
    2c54:	14000001 	b	2c58 <entry_8+0x18>
    2c58:	14000001 	b	2c5c <entry_8+0x1c>
    2c5c:	14000001 	b	2c60 <entry_8+0x20>
    2c60:	17fffdb6 	b	2338 <dummy_done>
    2c64:	d503201f 	nop
    2c68:	d503201f 	nop
    2c6c:	d503201f 	nop

0000000000002c70 <entry_9>:
    2c70:	14000001 	b	2c74 <entry_9+0x4>
    2c74:	14000001 	b	2c78 <entry_9+0x8>
    2c78:	14000001 	b	2c7c <entry_9+0xc>
    2c7c:	14000001 	b	2c80 <entry_9+0x10>
    2c80:	14000001 	b	2c84 <entry_9+0x14>
    2c84:	14000001 	b	2c88 <entry_9+0x18>
    2c88:	14000001 	b	2c8c <entry_9+0x1c>
    2c8c:	14000001 	b	2c90 <entry_9+0x20>
    2c90:	14000001 	b	2c94 <entry_9+0x24>
    2c94:	17fffda9 	b	2338 <dummy_done>
    2c98:	d503201f 	nop
    2c9c:	d503201f 	nop

0000000000002ca0 <entry_10>:
    2ca0:	14000001 	b	2ca4 <entry_10+0x4>
    2ca4:	14000001 	b	2ca8 <entry_10+0x8>
    2ca8:	14000001 	b	2cac <entry_10+0xc>
    2cac:	14000001 	b	2cb0 <entry_10+0x10>
    2cb0:	14000001 	b	2cb4 <entry_10+0x14>
    2cb4:	14000001 	b	2cb8 <entry_10+0x18>
    2cb8:	14000001 	b	2cbc <entry_10+0x1c>
    2cbc:	14000001 	b	2cc0 <entry_10+0x20>
    2cc0:	14000001 	b	2cc4 <entry_10+0x24>
    2cc4:	14000001 	b	2cc8 <entry_10+0x28>
    2cc8:	17fffd9c 	b	2338 <dummy_done>
    2ccc:	d503201f 	nop

0000000000002cd0 <entry_11>:
    2cd0:	14000001 	b	2cd4 <entry_11+0x4>
    2cd4:	14000001 	b	2cd8 <entry_11+0x8>
    2cd8:	14000001 	b	2cdc <entry_11+0xc>
    2cdc:	14000001 	b	2ce0 <entry_11+0x10>
    2ce0:	14000001 	b	2ce4 <entry_11+0x14>
    2ce4:	14000001 	b	2ce8 <entry_11+0x18>
    2ce8:	14000001 	b	2cec <entry_11+0x1c>
    2cec:	14000001 	b	2cf0 <entry_11+0x20>
    2cf0:	14000001 	b	2cf4 <entry_11+0x24>
    2cf4:	14000001 	b	2cf8 <entry_11+0x28>
    2cf8:	14000001 	b	2cfc <entry_11+0x2c>
    2cfc:	17fffd8f 	b	2338 <dummy_done>

0000000000002d00 <entry_12>:
    2d00:	14000001 	b	2d04 <entry_12+0x4>
    2d04:	14000001 	b	2d08 <entry_12+0x8>
    2d08:	14000001 	b	2d0c <entry_12+0xc>
    2d0c:	14000001 	b	2d10 <entry_12+0x10>
    2d10:	14000001 	b	2d14 <entry_12+0x14>
    2d14:	14000001 	b	2d18 <entry_12+0x18>
    2d18:	14000001 	b	2d1c <entry_12+0x1c>
    2d1c:	14000001 	b	2d20 <entry_12+0x20>
    2d20:	14000001 	b	2d24 <entry_12+0x24>
    2d24:	14000001 	b	2d28 <entry_12+0x28>
    2d28:	14000001 	b	2d2c <entry_12+0x2c>
    2d2c:	14000001 	b	2d30 <entry_12+0x30>
    2d30:	17fffd82 	b	2338 <dummy_done>
    2d34:	d503201f 	nop
    2d38:	d503201f 	nop
    2d3c:	d503201f 	nop

0000000000002d40 <entry_13>:
    2d40:	14000001 	b	2d44 <entry_13+0x4>
    2d44:	14000001 	b	2d48 <entry_13+0x8>
    2d48:	14000001 	b	2d4c <entry_13+0xc>
    2d4c:	14000001 	b	2d50 <entry_13+0x10>
    2d50:	14000001 	b	2d54 <entry_13+0x14>
    2d54:	14000001 	b	2d58 <entry_13+0x18>
    2d58:	14000001 	b	2d5c <entry_13+0x1c>
    2d5c:	14000001 	b	2d60 <entry_13+0x20>
    2d60:	14000001 	b	2d64 <entry_13+0x24>
    2d64:	14000001 	b	2d68 <entry_13+0x28>
    2d68:	14000001 	b	2d6c <entry_13+0x2c>
    2d6c:	14000001 	b	2d70 <entry_13+0x30>
    2d70:	14000001 	b	2d74 <entry_13+0x34>
    2d74:	17fffd71 	b	2338 <dummy_done>
    2d78:	d503201f 	nop
    2d7c:	d503201f 	nop

0000000000002d80 <entry_14>:
    2d80:	14000001 	b	2d84 <entry_14+0x4>
    2d84:	14000001 	b	2d88 <entry_14+0x8>
    2d88:	14000001 	b	2d8c <entry_14+0xc>
    2d8c:	14000001 	b	2d90 <entry_14+0x10>
    2d90:	14000001 	b	2d94 <entry_14+0x14>
    2d94:	14000001 	b	2d98 <entry_14+0x18>
    2d98:	14000001 	b	2d9c <entry_14+0x1c>
    2d9c:	14000001 	b	2da0 <entry_14+0x20>
    2da0:	14000001 	b	2da4 <entry_14+0x24>
    2da4:	14000001 	b	2da8 <entry_14+0x28>
    2da8:	14000001 	b	2dac <entry_14+0x2c>
    2dac:	14000001 	b	2db0 <entry_14+0x30>
    2db0:	14000001 	b	2db4 <entry_14+0x34>
    2db4:	14000001 	b	2db8 <entry_14+0x38>
    2db8:	17fffd60 	b	2338 <dummy_done>
    2dbc:	d503201f 	nop

0000000000002dc0 <entry_15>:
    2dc0:	14000001 	b	2dc4 <entry_15+0x4>
    2dc4:	14000001 	b	2dc8 <entry_15+0x8>
    2dc8:	14000001 	b	2dcc <entry_15+0xc>
    2dcc:	14000001 	b	2dd0 <entry_15+0x10>
    2dd0:	14000001 	b	2dd4 <entry_15+0x14>
    2dd4:	14000001 	b	2dd8 <entry_15+0x18>
    2dd8:	14000001 	b	2ddc <entry_15+0x1c>
    2ddc:	14000001 	b	2de0 <entry_15+0x20>
    2de0:	14000001 	b	2de4 <entry_15+0x24>
    2de4:	14000001 	b	2de8 <entry_15+0x28>
    2de8:	14000001 	b	2dec <entry_15+0x2c>
    2dec:	14000001 	b	2df0 <entry_15+0x30>
    2df0:	14000001 	b	2df4 <entry_15+0x34>
    2df4:	14000001 	b	2df8 <entry_15+0x38>
    2df8:	14000001 	b	2dfc <entry_15+0x3c>
    2dfc:	17fffd4f 	b	2338 <dummy_done>

0000000000002e00 <entry_16>:
    2e00:	14000001 	b	2e04 <entry_16+0x4>
    2e04:	14000001 	b	2e08 <entry_16+0x8>
    2e08:	14000001 	b	2e0c <entry_16+0xc>
    2e0c:	14000001 	b	2e10 <entry_16+0x10>
    2e10:	14000001 	b	2e14 <entry_16+0x14>
    2e14:	14000001 	b	2e18 <entry_16+0x18>
    2e18:	14000001 	b	2e1c <entry_16+0x1c>
    2e1c:	14000001 	b	2e20 <entry_16+0x20>
    2e20:	14000001 	b	2e24 <entry_16+0x24>
    2e24:	14000001 	b	2e28 <entry_16+0x28>
    2e28:	14000001 	b	2e2c <entry_16+0x2c>
    2e2c:	14000001 	b	2e30 <entry_16+0x30>
    2e30:	14000001 	b	2e34 <entry_16+0x34>
    2e34:	14000001 	b	2e38 <entry_16+0x38>
    2e38:	14000001 	b	2e3c <entry_16+0x3c>
    2e3c:	14000001 	b	2e40 <entry_16+0x40>
    2e40:	17fffd3e 	b	2338 <dummy_done>
    2e44:	d503201f 	nop
    2e48:	d503201f 	nop
    2e4c:	d503201f 	nop

0000000000002e50 <entry_17>:
    2e50:	14000001 	b	2e54 <entry_17+0x4>
    2e54:	14000001 	b	2e58 <entry_17+0x8>
    2e58:	14000001 	b	2e5c <entry_17+0xc>
    2e5c:	14000001 	b	2e60 <entry_17+0x10>
    2e60:	14000001 	b	2e64 <entry_17+0x14>
    2e64:	14000001 	b	2e68 <entry_17+0x18>
    2e68:	14000001 	b	2e6c <entry_17+0x1c>
    2e6c:	14000001 	b	2e70 <entry_17+0x20>
    2e70:	14000001 	b	2e74 <entry_17+0x24>
    2e74:	14000001 	b	2e78 <entry_17+0x28>
    2e78:	14000001 	b	2e7c <entry_17+0x2c>
    2e7c:	14000001 	b	2e80 <entry_17+0x30>
    2e80:	14000001 	b	2e84 <entry_17+0x34>
    2e84:	14000001 	b	2e88 <entry_17+0x38>
    2e88:	14000001 	b	2e8c <entry_17+0x3c>
    2e8c:	14000001 	b	2e90 <entry_17+0x40>
    2e90:	14000001 	b	2e94 <entry_17+0x44>
    2e94:	17fffd29 	b	2338 <dummy_done>
    2e98:	d503201f 	nop
    2e9c:	d503201f 	nop

0000000000002ea0 <entry_18>:
    2ea0:	14000001 	b	2ea4 <entry_18+0x4>
    2ea4:	14000001 	b	2ea8 <entry_18+0x8>
    2ea8:	14000001 	b	2eac <entry_18+0xc>
    2eac:	14000001 	b	2eb0 <entry_18+0x10>
    2eb0:	14000001 	b	2eb4 <entry_18+0x14>
    2eb4:	14000001 	b	2eb8 <entry_18+0x18>
    2eb8:	14000001 	b	2ebc <entry_18+0x1c>
    2ebc:	14000001 	b	2ec0 <entry_18+0x20>
    2ec0:	14000001 	b	2ec4 <entry_18+0x24>
    2ec4:	14000001 	b	2ec8 <entry_18+0x28>
    2ec8:	14000001 	b	2ecc <entry_18+0x2c>
    2ecc:	14000001 	b	2ed0 <entry_18+0x30>
    2ed0:	14000001 	b	2ed4 <entry_18+0x34>
    2ed4:	14000001 	b	2ed8 <entry_18+0x38>
    2ed8:	14000001 	b	2edc <entry_18+0x3c>
    2edc:	14000001 	b	2ee0 <entry_18+0x40>
    2ee0:	14000001 	b	2ee4 <entry_18+0x44>
    2ee4:	14000001 	b	2ee8 <entry_18+0x48>
    2ee8:	17fffd14 	b	2338 <dummy_done>
    2eec:	d503201f 	nop

0000000000002ef0 <entry_19>:
    2ef0:	14000001 	b	2ef4 <entry_19+0x4>
    2ef4:	14000001 	b	2ef8 <entry_19+0x8>
    2ef8:	14000001 	b	2efc <entry_19+0xc>
    2efc:	14000001 	b	2f00 <entry_19+0x10>
    2f00:	14000001 	b	2f04 <entry_19+0x14>
    2f04:	14000001 	b	2f08 <entry_19+0x18>
    2f08:	14000001 	b	2f0c <entry_19+0x1c>
    2f0c:	14000001 	b	2f10 <entry_19+0x20>
    2f10:	14000001 	b	2f14 <entry_19+0x24>
    2f14:	14000001 	b	2f18 <entry_19+0x28>
    2f18:	14000001 	b	2f1c <entry_19+0x2c>
    2f1c:	14000001 	b	2f20 <entry_19+0x30>
    2f20:	14000001 	b	2f24 <entry_19+0x34>
    2f24:	14000001 	b	2f28 <entry_19+0x38>
    2f28:	14000001 	b	2f2c <entry_19+0x3c>
    2f2c:	14000001 	b	2f30 <entry_19+0x40>
    2f30:	14000001 	b	2f34 <entry_19+0x44>
    2f34:	14000001 	b	2f38 <entry_19+0x48>
    2f38:	14000001 	b	2f3c <entry_19+0x4c>
    2f3c:	17fffcff 	b	2338 <dummy_done>

0000000000002f40 <entry_20>:
    2f40:	14000001 	b	2f44 <entry_20+0x4>
    2f44:	14000001 	b	2f48 <entry_20+0x8>
    2f48:	14000001 	b	2f4c <entry_20+0xc>
    2f4c:	14000001 	b	2f50 <entry_20+0x10>
    2f50:	14000001 	b	2f54 <entry_20+0x14>
    2f54:	14000001 	b	2f58 <entry_20+0x18>
    2f58:	14000001 	b	2f5c <entry_20+0x1c>
    2f5c:	14000001 	b	2f60 <entry_20+0x20>
    2f60:	14000001 	b	2f64 <entry_20+0x24>
    2f64:	14000001 	b	2f68 <entry_20+0x28>
    2f68:	14000001 	b	2f6c <entry_20+0x2c>
    2f6c:	14000001 	b	2f70 <entry_20+0x30>
    2f70:	14000001 	b	2f74 <entry_20+0x34>
    2f74:	14000001 	b	2f78 <entry_20+0x38>
    2f78:	14000001 	b	2f7c <entry_20+0x3c>
    2f7c:	14000001 	b	2f80 <entry_20+0x40>
    2f80:	14000001 	b	2f84 <entry_20+0x44>
    2f84:	14000001 	b	2f88 <entry_20+0x48>
    2f88:	14000001 	b	2f8c <entry_20+0x4c>
    2f8c:	14000001 	b	2f90 <entry_20+0x50>
    2f90:	17fffcea 	b	2338 <dummy_done>
    2f94:	d503201f 	nop
    2f98:	d503201f 	nop
    2f9c:	d503201f 	nop

0000000000002fa0 <entry_21>:
    2fa0:	14000001 	b	2fa4 <entry_21+0x4>
    2fa4:	14000001 	b	2fa8 <entry_21+0x8>
    2fa8:	14000001 	b	2fac <entry_21+0xc>
    2fac:	14000001 	b	2fb0 <entry_21+0x10>
    2fb0:	14000001 	b	2fb4 <entry_21+0x14>
    2fb4:	14000001 	b	2fb8 <entry_21+0x18>
    2fb8:	14000001 	b	2fbc <entry_21+0x1c>
    2fbc:	14000001 	b	2fc0 <entry_21+0x20>
    2fc0:	14000001 	b	2fc4 <entry_21+0x24>
    2fc4:	14000001 	b	2fc8 <entry_21+0x28>
    2fc8:	14000001 	b	2fcc <entry_21+0x2c>
    2fcc:	14000001 	b	2fd0 <entry_21+0x30>
    2fd0:	14000001 	b	2fd4 <entry_21+0x34>
    2fd4:	14000001 	b	2fd8 <entry_21+0x38>
    2fd8:	14000001 	b	2fdc <entry_21+0x3c>
    2fdc:	14000001 	b	2fe0 <entry_21+0x40>
    2fe0:	14000001 	b	2fe4 <entry_21+0x44>
    2fe4:	14000001 	b	2fe8 <entry_21+0x48>
    2fe8:	14000001 	b	2fec <entry_21+0x4c>
    2fec:	14000001 	b	2ff0 <entry_21+0x50>
    2ff0:	14000001 	b	2ff4 <entry_21+0x54>
    2ff4:	17fffcd1 	b	2338 <dummy_done>
    2ff8:	d503201f 	nop
    2ffc:	d503201f 	nop

0000000000003000 <entry_22>:
    3000:	14000001 	b	3004 <entry_22+0x4>
    3004:	14000001 	b	3008 <entry_22+0x8>
    3008:	14000001 	b	300c <entry_22+0xc>
    300c:	14000001 	b	3010 <entry_22+0x10>
    3010:	14000001 	b	3014 <entry_22+0x14>
    3014:	14000001 	b	3018 <entry_22+0x18>
    3018:	14000001 	b	301c <entry_22+0x1c>
    301c:	14000001 	b	3020 <entry_22+0x20>
    3020:	14000001 	b	3024 <entry_22+0x24>
    3024:	14000001 	b	3028 <entry_22+0x28>
    3028:	14000001 	b	302c <entry_22+0x2c>
    302c:	14000001 	b	3030 <entry_22+0x30>
    3030:	14000001 	b	3034 <entry_22+0x34>
    3034:	14000001 	b	3038 <entry_22+0x38>
    3038:	14000001 	b	303c <entry_22+0x3c>
    303c:	14000001 	b	3040 <entry_22+0x40>
    3040:	14000001 	b	3044 <entry_22+0x44>
    3044:	14000001 	b	3048 <entry_22+0x48>
    3048:	14000001 	b	304c <entry_22+0x4c>
    304c:	14000001 	b	3050 <entry_22+0x50>
    3050:	14000001 	b	3054 <entry_22+0x54>
    3054:	14000001 	b	3058 <entry_22+0x58>
    3058:	17fffcb8 	b	2338 <dummy_done>
    305c:	d503201f 	nop

0000000000003060 <entry_23>:
    3060:	14000001 	b	3064 <entry_23+0x4>
    3064:	14000001 	b	3068 <entry_23+0x8>
    3068:	14000001 	b	306c <entry_23+0xc>
    306c:	14000001 	b	3070 <entry_23+0x10>
    3070:	14000001 	b	3074 <entry_23+0x14>
    3074:	14000001 	b	3078 <entry_23+0x18>
    3078:	14000001 	b	307c <entry_23+0x1c>
    307c:	14000001 	b	3080 <entry_23+0x20>
    3080:	14000001 	b	3084 <entry_23+0x24>
    3084:	14000001 	b	3088 <entry_23+0x28>
    3088:	14000001 	b	308c <entry_23+0x2c>
    308c:	14000001 	b	3090 <entry_23+0x30>
    3090:	14000001 	b	3094 <entry_23+0x34>
    3094:	14000001 	b	3098 <entry_23+0x38>
    3098:	14000001 	b	309c <entry_23+0x3c>
    309c:	14000001 	b	30a0 <entry_23+0x40>
    30a0:	14000001 	b	30a4 <entry_23+0x44>
    30a4:	14000001 	b	30a8 <entry_23+0x48>
    30a8:	14000001 	b	30ac <entry_23+0x4c>
    30ac:	14000001 	b	30b0 <entry_23+0x50>
    30b0:	14000001 	b	30b4 <entry_23+0x54>
    30b4:	14000001 	b	30b8 <entry_23+0x58>
    30b8:	14000001 	b	30bc <entry_23+0x5c>
    30bc:	17fffc9f 	b	2338 <dummy_done>

00000000000030c0 <entry_24>:
    30c0:	14000001 	b	30c4 <entry_24+0x4>
    30c4:	14000001 	b	30c8 <entry_24+0x8>
    30c8:	14000001 	b	30cc <entry_24+0xc>
    30cc:	14000001 	b	30d0 <entry_24+0x10>
    30d0:	14000001 	b	30d4 <entry_24+0x14>
    30d4:	14000001 	b	30d8 <entry_24+0x18>
    30d8:	14000001 	b	30dc <entry_24+0x1c>
    30dc:	14000001 	b	30e0 <entry_24+0x20>
    30e0:	14000001 	b	30e4 <entry_24+0x24>
    30e4:	14000001 	b	30e8 <entry_24+0x28>
    30e8:	14000001 	b	30ec <entry_24+0x2c>
    30ec:	14000001 	b	30f0 <entry_24+0x30>
    30f0:	14000001 	b	30f4 <entry_24+0x34>
    30f4:	14000001 	b	30f8 <entry_24+0x38>
    30f8:	14000001 	b	30fc <entry_24+0x3c>
    30fc:	14000001 	b	3100 <entry_24+0x40>
    3100:	14000001 	b	3104 <entry_24+0x44>
    3104:	14000001 	b	3108 <entry_24+0x48>
    3108:	14000001 	b	310c <entry_24+0x4c>
    310c:	14000001 	b	3110 <entry_24+0x50>
    3110:	14000001 	b	3114 <entry_24+0x54>
    3114:	14000001 	b	3118 <entry_24+0x58>
    3118:	14000001 	b	311c <entry_24+0x5c>
    311c:	14000001 	b	3120 <entry_24+0x60>
    3120:	17fffc86 	b	2338 <dummy_done>
    3124:	d503201f 	nop
    3128:	d503201f 	nop
    312c:	d503201f 	nop

0000000000003130 <entry_25>:
    3130:	14000001 	b	3134 <entry_25+0x4>
    3134:	14000001 	b	3138 <entry_25+0x8>
    3138:	14000001 	b	313c <entry_25+0xc>
    313c:	14000001 	b	3140 <entry_25+0x10>
    3140:	14000001 	b	3144 <entry_25+0x14>
    3144:	14000001 	b	3148 <entry_25+0x18>
    3148:	14000001 	b	314c <entry_25+0x1c>
    314c:	14000001 	b	3150 <entry_25+0x20>
    3150:	14000001 	b	3154 <entry_25+0x24>
    3154:	14000001 	b	3158 <entry_25+0x28>
    3158:	14000001 	b	315c <entry_25+0x2c>
    315c:	14000001 	b	3160 <entry_25+0x30>
    3160:	14000001 	b	3164 <entry_25+0x34>
    3164:	14000001 	b	3168 <entry_25+0x38>
    3168:	14000001 	b	316c <entry_25+0x3c>
    316c:	14000001 	b	3170 <entry_25+0x40>
    3170:	14000001 	b	3174 <entry_25+0x44>
    3174:	14000001 	b	3178 <entry_25+0x48>
    3178:	14000001 	b	317c <entry_25+0x4c>
    317c:	14000001 	b	3180 <entry_25+0x50>
    3180:	14000001 	b	3184 <entry_25+0x54>
    3184:	14000001 	b	3188 <entry_25+0x58>
    3188:	14000001 	b	318c <entry_25+0x5c>
    318c:	14000001 	b	3190 <entry_25+0x60>
    3190:	14000001 	b	3194 <entry_25+0x64>
    3194:	17fffc69 	b	2338 <dummy_done>
    3198:	d503201f 	nop
    319c:	d503201f 	nop

00000000000031a0 <entry_26>:
    31a0:	14000001 	b	31a4 <entry_26+0x4>
    31a4:	14000001 	b	31a8 <entry_26+0x8>
    31a8:	14000001 	b	31ac <entry_26+0xc>
    31ac:	14000001 	b	31b0 <entry_26+0x10>
    31b0:	14000001 	b	31b4 <entry_26+0x14>
    31b4:	14000001 	b	31b8 <entry_26+0x18>
    31b8:	14000001 	b	31bc <entry_26+0x1c>
    31bc:	14000001 	b	31c0 <entry_26+0x20>
    31c0:	14000001 	b	31c4 <entry_26+0x24>
    31c4:	14000001 	b	31c8 <entry_26+0x28>
    31c8:	14000001 	b	31cc <entry_26+0x2c>
    31cc:	14000001 	b	31d0 <entry_26+0x30>
    31d0:	14000001 	b	31d4 <entry_26+0x34>
    31d4:	14000001 	b	31d8 <entry_26+0x38>
    31d8:	14000001 	b	31dc <entry_26+0x3c>
    31dc:	14000001 	b	31e0 <entry_26+0x40>
    31e0:	14000001 	b	31e4 <entry_26+0x44>
    31e4:	14000001 	b	31e8 <entry_26+0x48>
    31e8:	14000001 	b	31ec <entry_26+0x4c>
    31ec:	14000001 	b	31f0 <entry_26+0x50>
    31f0:	14000001 	b	31f4 <entry_26+0x54>
    31f4:	14000001 	b	31f8 <entry_26+0x58>
    31f8:	14000001 	b	31fc <entry_26+0x5c>
    31fc:	14000001 	b	3200 <entry_26+0x60>
    3200:	14000001 	b	3204 <entry_26+0x64>
    3204:	14000001 	b	3208 <entry_26+0x68>
    3208:	17fffc4c 	b	2338 <dummy_done>
    320c:	d503201f 	nop

0000000000003210 <entry_27>:
    3210:	14000001 	b	3214 <entry_27+0x4>
    3214:	14000001 	b	3218 <entry_27+0x8>
    3218:	14000001 	b	321c <entry_27+0xc>
    321c:	14000001 	b	3220 <entry_27+0x10>
    3220:	14000001 	b	3224 <entry_27+0x14>
    3224:	14000001 	b	3228 <entry_27+0x18>
    3228:	14000001 	b	322c <entry_27+0x1c>
    322c:	14000001 	b	3230 <entry_27+0x20>
    3230:	14000001 	b	3234 <entry_27+0x24>
    3234:	14000001 	b	3238 <entry_27+0x28>
    3238:	14000001 	b	323c <entry_27+0x2c>
    323c:	14000001 	b	3240 <entry_27+0x30>
    3240:	14000001 	b	3244 <entry_27+0x34>
    3244:	14000001 	b	3248 <entry_27+0x38>
    3248:	14000001 	b	324c <entry_27+0x3c>
    324c:	14000001 	b	3250 <entry_27+0x40>
    3250:	14000001 	b	3254 <entry_27+0x44>
    3254:	14000001 	b	3258 <entry_27+0x48>
    3258:	14000001 	b	325c <entry_27+0x4c>
    325c:	14000001 	b	3260 <entry_27+0x50>
    3260:	14000001 	b	3264 <entry_27+0x54>
    3264:	14000001 	b	3268 <entry_27+0x58>
    3268:	14000001 	b	326c <entry_27+0x5c>
    326c:	14000001 	b	3270 <entry_27+0x60>
    3270:	14000001 	b	3274 <entry_27+0x64>
    3274:	14000001 	b	3278 <entry_27+0x68>
    3278:	14000001 	b	327c <entry_27+0x6c>
    327c:	17fffc2f 	b	2338 <dummy_done>

0000000000003280 <entry_28>:
    3280:	14000001 	b	3284 <entry_28+0x4>
    3284:	14000001 	b	3288 <entry_28+0x8>
    3288:	14000001 	b	328c <entry_28+0xc>
    328c:	14000001 	b	3290 <entry_28+0x10>
    3290:	14000001 	b	3294 <entry_28+0x14>
    3294:	14000001 	b	3298 <entry_28+0x18>
    3298:	14000001 	b	329c <entry_28+0x1c>
    329c:	14000001 	b	32a0 <entry_28+0x20>
    32a0:	14000001 	b	32a4 <entry_28+0x24>
    32a4:	14000001 	b	32a8 <entry_28+0x28>
    32a8:	14000001 	b	32ac <entry_28+0x2c>
    32ac:	14000001 	b	32b0 <entry_28+0x30>
    32b0:	14000001 	b	32b4 <entry_28+0x34>
    32b4:	14000001 	b	32b8 <entry_28+0x38>
    32b8:	14000001 	b	32bc <entry_28+0x3c>
    32bc:	14000001 	b	32c0 <entry_28+0x40>
    32c0:	14000001 	b	32c4 <entry_28+0x44>
    32c4:	14000001 	b	32c8 <entry_28+0x48>
    32c8:	14000001 	b	32cc <entry_28+0x4c>
    32cc:	14000001 	b	32d0 <entry_28+0x50>
    32d0:	14000001 	b	32d4 <entry_28+0x54>
    32d4:	14000001 	b	32d8 <entry_28+0x58>
    32d8:	14000001 	b	32dc <entry_28+0x5c>
    32dc:	14000001 	b	32e0 <entry_28+0x60>
    32e0:	14000001 	b	32e4 <entry_28+0x64>
    32e4:	14000001 	b	32e8 <entry_28+0x68>
    32e8:	14000001 	b	32ec <entry_28+0x6c>
    32ec:	14000001 	b	32f0 <entry_28+0x70>
    32f0:	17fffc12 	b	2338 <dummy_done>
    32f4:	d503201f 	nop
    32f8:	d503201f 	nop
    32fc:	d503201f 	nop

0000000000003300 <entry_29>:
    3300:	14000001 	b	3304 <entry_29+0x4>
    3304:	14000001 	b	3308 <entry_29+0x8>
    3308:	14000001 	b	330c <entry_29+0xc>
    330c:	14000001 	b	3310 <entry_29+0x10>
    3310:	14000001 	b	3314 <entry_29+0x14>
    3314:	14000001 	b	3318 <entry_29+0x18>
    3318:	14000001 	b	331c <entry_29+0x1c>
    331c:	14000001 	b	3320 <entry_29+0x20>
    3320:	14000001 	b	3324 <entry_29+0x24>
    3324:	14000001 	b	3328 <entry_29+0x28>
    3328:	14000001 	b	332c <entry_29+0x2c>
    332c:	14000001 	b	3330 <entry_29+0x30>
    3330:	14000001 	b	3334 <entry_29+0x34>
    3334:	14000001 	b	3338 <entry_29+0x38>
    3338:	14000001 	b	333c <entry_29+0x3c>
    333c:	14000001 	b	3340 <entry_29+0x40>
    3340:	14000001 	b	3344 <entry_29+0x44>
    3344:	14000001 	b	3348 <entry_29+0x48>
    3348:	14000001 	b	334c <entry_29+0x4c>
    334c:	14000001 	b	3350 <entry_29+0x50>
    3350:	14000001 	b	3354 <entry_29+0x54>
    3354:	14000001 	b	3358 <entry_29+0x58>
    3358:	14000001 	b	335c <entry_29+0x5c>
    335c:	14000001 	b	3360 <entry_29+0x60>
    3360:	14000001 	b	3364 <entry_29+0x64>
    3364:	14000001 	b	3368 <entry_29+0x68>
    3368:	14000001 	b	336c <entry_29+0x6c>
    336c:	14000001 	b	3370 <entry_29+0x70>
    3370:	14000001 	b	3374 <entry_29+0x74>
    3374:	17fffbf1 	b	2338 <dummy_done>
    3378:	d503201f 	nop
    337c:	d503201f 	nop

0000000000003380 <entry_30>:
    3380:	14000001 	b	3384 <entry_30+0x4>
    3384:	14000001 	b	3388 <entry_30+0x8>
    3388:	14000001 	b	338c <entry_30+0xc>
    338c:	14000001 	b	3390 <entry_30+0x10>
    3390:	14000001 	b	3394 <entry_30+0x14>
    3394:	14000001 	b	3398 <entry_30+0x18>
    3398:	14000001 	b	339c <entry_30+0x1c>
    339c:	14000001 	b	33a0 <entry_30+0x20>
    33a0:	14000001 	b	33a4 <entry_30+0x24>
    33a4:	14000001 	b	33a8 <entry_30+0x28>
    33a8:	14000001 	b	33ac <entry_30+0x2c>
    33ac:	14000001 	b	33b0 <entry_30+0x30>
    33b0:	14000001 	b	33b4 <entry_30+0x34>
    33b4:	14000001 	b	33b8 <entry_30+0x38>
    33b8:	14000001 	b	33bc <entry_30+0x3c>
    33bc:	14000001 	b	33c0 <entry_30+0x40>
    33c0:	14000001 	b	33c4 <entry_30+0x44>
    33c4:	14000001 	b	33c8 <entry_30+0x48>
    33c8:	14000001 	b	33cc <entry_30+0x4c>
    33cc:	14000001 	b	33d0 <entry_30+0x50>
    33d0:	14000001 	b	33d4 <entry_30+0x54>
    33d4:	14000001 	b	33d8 <entry_30+0x58>
    33d8:	14000001 	b	33dc <entry_30+0x5c>
    33dc:	14000001 	b	33e0 <entry_30+0x60>
    33e0:	14000001 	b	33e4 <entry_30+0x64>
    33e4:	14000001 	b	33e8 <entry_30+0x68>
    33e8:	14000001 	b	33ec <entry_30+0x6c>
    33ec:	14000001 	b	33f0 <entry_30+0x70>
    33f0:	14000001 	b	33f4 <entry_30+0x74>
    33f4:	14000001 	b	33f8 <entry_30+0x78>
    33f8:	17fffbd0 	b	2338 <dummy_done>
    33fc:	d503201f 	nop

0000000000003400 <entry_31>:
    3400:	14000001 	b	3404 <entry_31+0x4>
    3404:	14000001 	b	3408 <entry_31+0x8>
    3408:	14000001 	b	340c <entry_31+0xc>
    340c:	14000001 	b	3410 <entry_31+0x10>
    3410:	14000001 	b	3414 <entry_31+0x14>
    3414:	14000001 	b	3418 <entry_31+0x18>
    3418:	14000001 	b	341c <entry_31+0x1c>
    341c:	14000001 	b	3420 <entry_31+0x20>
    3420:	14000001 	b	3424 <entry_31+0x24>
    3424:	14000001 	b	3428 <entry_31+0x28>
    3428:	14000001 	b	342c <entry_31+0x2c>
    342c:	14000001 	b	3430 <entry_31+0x30>
    3430:	14000001 	b	3434 <entry_31+0x34>
    3434:	14000001 	b	3438 <entry_31+0x38>
    3438:	14000001 	b	343c <entry_31+0x3c>
    343c:	14000001 	b	3440 <entry_31+0x40>
    3440:	14000001 	b	3444 <entry_31+0x44>
    3444:	14000001 	b	3448 <entry_31+0x48>
    3448:	14000001 	b	344c <entry_31+0x4c>
    344c:	14000001 	b	3450 <entry_31+0x50>
    3450:	14000001 	b	3454 <entry_31+0x54>
    3454:	14000001 	b	3458 <entry_31+0x58>
    3458:	14000001 	b	345c <entry_31+0x5c>
    345c:	14000001 	b	3460 <entry_31+0x60>
    3460:	14000001 	b	3464 <entry_31+0x64>
    3464:	14000001 	b	3468 <entry_31+0x68>
    3468:	14000001 	b	346c <entry_31+0x6c>
    346c:	14000001 	b	3470 <entry_31+0x70>
    3470:	14000001 	b	3474 <entry_31+0x74>
    3474:	14000001 	b	3478 <entry_31+0x78>
    3478:	14000001 	b	347c <entry_31+0x7c>
    347c:	17fffbaf 	b	2338 <dummy_done>

0000000000003480 <entry_32>:
    3480:	14000001 	b	3484 <entry_32+0x4>
    3484:	14000001 	b	3488 <entry_32+0x8>
    3488:	14000001 	b	348c <entry_32+0xc>
    348c:	14000001 	b	3490 <entry_32+0x10>
    3490:	14000001 	b	3494 <entry_32+0x14>
    3494:	14000001 	b	3498 <entry_32+0x18>
    3498:	14000001 	b	349c <entry_32+0x1c>
    349c:	14000001 	b	34a0 <entry_32+0x20>
    34a0:	14000001 	b	34a4 <entry_32+0x24>
    34a4:	14000001 	b	34a8 <entry_32+0x28>
    34a8:	14000001 	b	34ac <entry_32+0x2c>
    34ac:	14000001 	b	34b0 <entry_32+0x30>
    34b0:	14000001 	b	34b4 <entry_32+0x34>
    34b4:	14000001 	b	34b8 <entry_32+0x38>
    34b8:	14000001 	b	34bc <entry_32+0x3c>
    34bc:	14000001 	b	34c0 <entry_32+0x40>
    34c0:	14000001 	b	34c4 <entry_32+0x44>
    34c4:	14000001 	b	34c8 <entry_32+0x48>
    34c8:	14000001 	b	34cc <entry_32+0x4c>
    34cc:	14000001 	b	34d0 <entry_32+0x50>
    34d0:	14000001 	b	34d4 <entry_32+0x54>
    34d4:	14000001 	b	34d8 <entry_32+0x58>
    34d8:	14000001 	b	34dc <entry_32+0x5c>
    34dc:	14000001 	b	34e0 <entry_32+0x60>
    34e0:	14000001 	b	34e4 <entry_32+0x64>
    34e4:	14000001 	b	34e8 <entry_32+0x68>
    34e8:	14000001 	b	34ec <entry_32+0x6c>
    34ec:	14000001 	b	34f0 <entry_32+0x70>
    34f0:	14000001 	b	34f4 <entry_32+0x74>
    34f4:	14000001 	b	34f8 <entry_32+0x78>
    34f8:	14000001 	b	34fc <entry_32+0x7c>
    34fc:	14000001 	b	3500 <entry_32+0x80>
    3500:	17fffb8e 	b	2338 <dummy_done>
    3504:	d503201f 	nop
    3508:	d503201f 	nop
    350c:	d503201f 	nop

0000000000003510 <entry_33>:
    3510:	14000001 	b	3514 <entry_33+0x4>
    3514:	14000001 	b	3518 <entry_33+0x8>
    3518:	14000001 	b	351c <entry_33+0xc>
    351c:	14000001 	b	3520 <entry_33+0x10>
    3520:	14000001 	b	3524 <entry_33+0x14>
    3524:	14000001 	b	3528 <entry_33+0x18>
    3528:	14000001 	b	352c <entry_33+0x1c>
    352c:	14000001 	b	3530 <entry_33+0x20>
    3530:	14000001 	b	3534 <entry_33+0x24>
    3534:	14000001 	b	3538 <entry_33+0x28>
    3538:	14000001 	b	353c <entry_33+0x2c>
    353c:	14000001 	b	3540 <entry_33+0x30>
    3540:	14000001 	b	3544 <entry_33+0x34>
    3544:	14000001 	b	3548 <entry_33+0x38>
    3548:	14000001 	b	354c <entry_33+0x3c>
    354c:	14000001 	b	3550 <entry_33+0x40>
    3550:	14000001 	b	3554 <entry_33+0x44>
    3554:	14000001 	b	3558 <entry_33+0x48>
    3558:	14000001 	b	355c <entry_33+0x4c>
    355c:	14000001 	b	3560 <entry_33+0x50>
    3560:	14000001 	b	3564 <entry_33+0x54>
    3564:	14000001 	b	3568 <entry_33+0x58>
    3568:	14000001 	b	356c <entry_33+0x5c>
    356c:	14000001 	b	3570 <entry_33+0x60>
    3570:	14000001 	b	3574 <entry_33+0x64>
    3574:	14000001 	b	3578 <entry_33+0x68>
    3578:	14000001 	b	357c <entry_33+0x6c>
    357c:	14000001 	b	3580 <entry_33+0x70>
    3580:	14000001 	b	3584 <entry_33+0x74>
    3584:	14000001 	b	3588 <entry_33+0x78>
    3588:	14000001 	b	358c <entry_33+0x7c>
    358c:	14000001 	b	3590 <entry_33+0x80>
    3590:	14000001 	b	3594 <entry_33+0x84>
    3594:	17fffb69 	b	2338 <dummy_done>
    3598:	d503201f 	nop
    359c:	d503201f 	nop

00000000000035a0 <entry_34>:
    35a0:	14000001 	b	35a4 <entry_34+0x4>
    35a4:	14000001 	b	35a8 <entry_34+0x8>
    35a8:	14000001 	b	35ac <entry_34+0xc>
    35ac:	14000001 	b	35b0 <entry_34+0x10>
    35b0:	14000001 	b	35b4 <entry_34+0x14>
    35b4:	14000001 	b	35b8 <entry_34+0x18>
    35b8:	14000001 	b	35bc <entry_34+0x1c>
    35bc:	14000001 	b	35c0 <entry_34+0x20>
    35c0:	14000001 	b	35c4 <entry_34+0x24>
    35c4:	14000001 	b	35c8 <entry_34+0x28>
    35c8:	14000001 	b	35cc <entry_34+0x2c>
    35cc:	14000001 	b	35d0 <entry_34+0x30>
    35d0:	14000001 	b	35d4 <entry_34+0x34>
    35d4:	14000001 	b	35d8 <entry_34+0x38>
    35d8:	14000001 	b	35dc <entry_34+0x3c>
    35dc:	14000001 	b	35e0 <entry_34+0x40>
    35e0:	14000001 	b	35e4 <entry_34+0x44>
    35e4:	14000001 	b	35e8 <entry_34+0x48>
    35e8:	14000001 	b	35ec <entry_34+0x4c>
    35ec:	14000001 	b	35f0 <entry_34+0x50>
    35f0:	14000001 	b	35f4 <entry_34+0x54>
    35f4:	14000001 	b	35f8 <entry_34+0x58>
    35f8:	14000001 	b	35fc <entry_34+0x5c>
    35fc:	14000001 	b	3600 <entry_34+0x60>
    3600:	14000001 	b	3604 <entry_34+0x64>
    3604:	14000001 	b	3608 <entry_34+0x68>
    3608:	14000001 	b	360c <entry_34+0x6c>
    360c:	14000001 	b	3610 <entry_34+0x70>
    3610:	14000001 	b	3614 <entry_34+0x74>
    3614:	14000001 	b	3618 <entry_34+0x78>
    3618:	14000001 	b	361c <entry_34+0x7c>
    361c:	14000001 	b	3620 <entry_34+0x80>
    3620:	14000001 	b	3624 <entry_34+0x84>
    3624:	14000001 	b	3628 <entry_34+0x88>
    3628:	17fffb44 	b	2338 <dummy_done>
    362c:	d503201f 	nop

0000000000003630 <entry_35>:
    3630:	14000001 	b	3634 <entry_35+0x4>
    3634:	14000001 	b	3638 <entry_35+0x8>
    3638:	14000001 	b	363c <entry_35+0xc>
    363c:	14000001 	b	3640 <entry_35+0x10>
    3640:	14000001 	b	3644 <entry_35+0x14>
    3644:	14000001 	b	3648 <entry_35+0x18>
    3648:	14000001 	b	364c <entry_35+0x1c>
    364c:	14000001 	b	3650 <entry_35+0x20>
    3650:	14000001 	b	3654 <entry_35+0x24>
    3654:	14000001 	b	3658 <entry_35+0x28>
    3658:	14000001 	b	365c <entry_35+0x2c>
    365c:	14000001 	b	3660 <entry_35+0x30>
    3660:	14000001 	b	3664 <entry_35+0x34>
    3664:	14000001 	b	3668 <entry_35+0x38>
    3668:	14000001 	b	366c <entry_35+0x3c>
    366c:	14000001 	b	3670 <entry_35+0x40>
    3670:	14000001 	b	3674 <entry_35+0x44>
    3674:	14000001 	b	3678 <entry_35+0x48>
    3678:	14000001 	b	367c <entry_35+0x4c>
    367c:	14000001 	b	3680 <entry_35+0x50>
    3680:	14000001 	b	3684 <entry_35+0x54>
    3684:	14000001 	b	3688 <entry_35+0x58>
    3688:	14000001 	b	368c <entry_35+0x5c>
    368c:	14000001 	b	3690 <entry_35+0x60>
    3690:	14000001 	b	3694 <entry_35+0x64>
    3694:	14000001 	b	3698 <entry_35+0x68>
    3698:	14000001 	b	369c <entry_35+0x6c>
    369c:	14000001 	b	36a0 <entry_35+0x70>
    36a0:	14000001 	b	36a4 <entry_35+0x74>
    36a4:	14000001 	b	36a8 <entry_35+0x78>
    36a8:	14000001 	b	36ac <entry_35+0x7c>
    36ac:	14000001 	b	36b0 <entry_35+0x80>
    36b0:	14000001 	b	36b4 <entry_35+0x84>
    36b4:	14000001 	b	36b8 <entry_35+0x88>
    36b8:	14000001 	b	36bc <entry_35+0x8c>
    36bc:	17fffb1f 	b	2338 <dummy_done>

00000000000036c0 <entry_36>:
    36c0:	14000001 	b	36c4 <entry_36+0x4>
    36c4:	14000001 	b	36c8 <entry_36+0x8>
    36c8:	14000001 	b	36cc <entry_36+0xc>
    36cc:	14000001 	b	36d0 <entry_36+0x10>
    36d0:	14000001 	b	36d4 <entry_36+0x14>
    36d4:	14000001 	b	36d8 <entry_36+0x18>
    36d8:	14000001 	b	36dc <entry_36+0x1c>
    36dc:	14000001 	b	36e0 <entry_36+0x20>
    36e0:	14000001 	b	36e4 <entry_36+0x24>
    36e4:	14000001 	b	36e8 <entry_36+0x28>
    36e8:	14000001 	b	36ec <entry_36+0x2c>
    36ec:	14000001 	b	36f0 <entry_36+0x30>
    36f0:	14000001 	b	36f4 <entry_36+0x34>
    36f4:	14000001 	b	36f8 <entry_36+0x38>
    36f8:	14000001 	b	36fc <entry_36+0x3c>
    36fc:	14000001 	b	3700 <entry_36+0x40>
    3700:	14000001 	b	3704 <entry_36+0x44>
    3704:	14000001 	b	3708 <entry_36+0x48>
    3708:	14000001 	b	370c <entry_36+0x4c>
    370c:	14000001 	b	3710 <entry_36+0x50>
    3710:	14000001 	b	3714 <entry_36+0x54>
    3714:	14000001 	b	3718 <entry_36+0x58>
    3718:	14000001 	b	371c <entry_36+0x5c>
    371c:	14000001 	b	3720 <entry_36+0x60>
    3720:	14000001 	b	3724 <entry_36+0x64>
    3724:	14000001 	b	3728 <entry_36+0x68>
    3728:	14000001 	b	372c <entry_36+0x6c>
    372c:	14000001 	b	3730 <entry_36+0x70>
    3730:	14000001 	b	3734 <entry_36+0x74>
    3734:	14000001 	b	3738 <entry_36+0x78>
    3738:	14000001 	b	373c <entry_36+0x7c>
    373c:	14000001 	b	3740 <entry_36+0x80>
    3740:	14000001 	b	3744 <entry_36+0x84>
    3744:	14000001 	b	3748 <entry_36+0x88>
    3748:	14000001 	b	374c <entry_36+0x8c>
    374c:	14000001 	b	3750 <entry_36+0x90>
    3750:	17fffafa 	b	2338 <dummy_done>
    3754:	d503201f 	nop
    3758:	d503201f 	nop
    375c:	d503201f 	nop

0000000000003760 <entry_37>:
    3760:	14000001 	b	3764 <entry_37+0x4>
    3764:	14000001 	b	3768 <entry_37+0x8>
    3768:	14000001 	b	376c <entry_37+0xc>
    376c:	14000001 	b	3770 <entry_37+0x10>
    3770:	14000001 	b	3774 <entry_37+0x14>
    3774:	14000001 	b	3778 <entry_37+0x18>
    3778:	14000001 	b	377c <entry_37+0x1c>
    377c:	14000001 	b	3780 <entry_37+0x20>
    3780:	14000001 	b	3784 <entry_37+0x24>
    3784:	14000001 	b	3788 <entry_37+0x28>
    3788:	14000001 	b	378c <entry_37+0x2c>
    378c:	14000001 	b	3790 <entry_37+0x30>
    3790:	14000001 	b	3794 <entry_37+0x34>
    3794:	14000001 	b	3798 <entry_37+0x38>
    3798:	14000001 	b	379c <entry_37+0x3c>
    379c:	14000001 	b	37a0 <entry_37+0x40>
    37a0:	14000001 	b	37a4 <entry_37+0x44>
    37a4:	14000001 	b	37a8 <entry_37+0x48>
    37a8:	14000001 	b	37ac <entry_37+0x4c>
    37ac:	14000001 	b	37b0 <entry_37+0x50>
    37b0:	14000001 	b	37b4 <entry_37+0x54>
    37b4:	14000001 	b	37b8 <entry_37+0x58>
    37b8:	14000001 	b	37bc <entry_37+0x5c>
    37bc:	14000001 	b	37c0 <entry_37+0x60>
    37c0:	14000001 	b	37c4 <entry_37+0x64>
    37c4:	14000001 	b	37c8 <entry_37+0x68>
    37c8:	14000001 	b	37cc <entry_37+0x6c>
    37cc:	14000001 	b	37d0 <entry_37+0x70>
    37d0:	14000001 	b	37d4 <entry_37+0x74>
    37d4:	14000001 	b	37d8 <entry_37+0x78>
    37d8:	14000001 	b	37dc <entry_37+0x7c>
    37dc:	14000001 	b	37e0 <entry_37+0x80>
    37e0:	14000001 	b	37e4 <entry_37+0x84>
    37e4:	14000001 	b	37e8 <entry_37+0x88>
    37e8:	14000001 	b	37ec <entry_37+0x8c>
    37ec:	14000001 	b	37f0 <entry_37+0x90>
    37f0:	14000001 	b	37f4 <entry_37+0x94>
    37f4:	17fffad1 	b	2338 <dummy_done>
    37f8:	d503201f 	nop
    37fc:	d503201f 	nop

0000000000003800 <entry_38>:
    3800:	14000001 	b	3804 <entry_38+0x4>
    3804:	14000001 	b	3808 <entry_38+0x8>
    3808:	14000001 	b	380c <entry_38+0xc>
    380c:	14000001 	b	3810 <entry_38+0x10>
    3810:	14000001 	b	3814 <entry_38+0x14>
    3814:	14000001 	b	3818 <entry_38+0x18>
    3818:	14000001 	b	381c <entry_38+0x1c>
    381c:	14000001 	b	3820 <entry_38+0x20>
    3820:	14000001 	b	3824 <entry_38+0x24>
    3824:	14000001 	b	3828 <entry_38+0x28>
    3828:	14000001 	b	382c <entry_38+0x2c>
    382c:	14000001 	b	3830 <entry_38+0x30>
    3830:	14000001 	b	3834 <entry_38+0x34>
    3834:	14000001 	b	3838 <entry_38+0x38>
    3838:	14000001 	b	383c <entry_38+0x3c>
    383c:	14000001 	b	3840 <entry_38+0x40>
    3840:	14000001 	b	3844 <entry_38+0x44>
    3844:	14000001 	b	3848 <entry_38+0x48>
    3848:	14000001 	b	384c <entry_38+0x4c>
    384c:	14000001 	b	3850 <entry_38+0x50>
    3850:	14000001 	b	3854 <entry_38+0x54>
    3854:	14000001 	b	3858 <entry_38+0x58>
    3858:	14000001 	b	385c <entry_38+0x5c>
    385c:	14000001 	b	3860 <entry_38+0x60>
    3860:	14000001 	b	3864 <entry_38+0x64>
    3864:	14000001 	b	3868 <entry_38+0x68>
    3868:	14000001 	b	386c <entry_38+0x6c>
    386c:	14000001 	b	3870 <entry_38+0x70>
    3870:	14000001 	b	3874 <entry_38+0x74>
    3874:	14000001 	b	3878 <entry_38+0x78>
    3878:	14000001 	b	387c <entry_38+0x7c>
    387c:	14000001 	b	3880 <entry_38+0x80>
    3880:	14000001 	b	3884 <entry_38+0x84>
    3884:	14000001 	b	3888 <entry_38+0x88>
    3888:	14000001 	b	388c <entry_38+0x8c>
    388c:	14000001 	b	3890 <entry_38+0x90>
    3890:	14000001 	b	3894 <entry_38+0x94>
    3894:	14000001 	b	3898 <entry_38+0x98>
    3898:	17fffaa8 	b	2338 <dummy_done>
    389c:	d503201f 	nop

00000000000038a0 <entry_39>:
    38a0:	14000001 	b	38a4 <entry_39+0x4>
    38a4:	14000001 	b	38a8 <entry_39+0x8>
    38a8:	14000001 	b	38ac <entry_39+0xc>
    38ac:	14000001 	b	38b0 <entry_39+0x10>
    38b0:	14000001 	b	38b4 <entry_39+0x14>
    38b4:	14000001 	b	38b8 <entry_39+0x18>
    38b8:	14000001 	b	38bc <entry_39+0x1c>
    38bc:	14000001 	b	38c0 <entry_39+0x20>
    38c0:	14000001 	b	38c4 <entry_39+0x24>
    38c4:	14000001 	b	38c8 <entry_39+0x28>
    38c8:	14000001 	b	38cc <entry_39+0x2c>
    38cc:	14000001 	b	38d0 <entry_39+0x30>
    38d0:	14000001 	b	38d4 <entry_39+0x34>
    38d4:	14000001 	b	38d8 <entry_39+0x38>
    38d8:	14000001 	b	38dc <entry_39+0x3c>
    38dc:	14000001 	b	38e0 <entry_39+0x40>
    38e0:	14000001 	b	38e4 <entry_39+0x44>
    38e4:	14000001 	b	38e8 <entry_39+0x48>
    38e8:	14000001 	b	38ec <entry_39+0x4c>
    38ec:	14000001 	b	38f0 <entry_39+0x50>
    38f0:	14000001 	b	38f4 <entry_39+0x54>
    38f4:	14000001 	b	38f8 <entry_39+0x58>
    38f8:	14000001 	b	38fc <entry_39+0x5c>
    38fc:	14000001 	b	3900 <entry_39+0x60>
    3900:	14000001 	b	3904 <entry_39+0x64>
    3904:	14000001 	b	3908 <entry_39+0x68>
    3908:	14000001 	b	390c <entry_39+0x6c>
    390c:	14000001 	b	3910 <entry_39+0x70>
    3910:	14000001 	b	3914 <entry_39+0x74>
    3914:	14000001 	b	3918 <entry_39+0x78>
    3918:	14000001 	b	391c <entry_39+0x7c>
    391c:	14000001 	b	3920 <entry_39+0x80>
    3920:	14000001 	b	3924 <entry_39+0x84>
    3924:	14000001 	b	3928 <entry_39+0x88>
    3928:	14000001 	b	392c <entry_39+0x8c>
    392c:	14000001 	b	3930 <entry_39+0x90>
    3930:	14000001 	b	3934 <entry_39+0x94>
    3934:	14000001 	b	3938 <entry_39+0x98>
    3938:	14000001 	b	393c <entry_39+0x9c>
    393c:	17fffa7f 	b	2338 <dummy_done>

0000000000003940 <entry_40>:
    3940:	14000001 	b	3944 <entry_40+0x4>
    3944:	14000001 	b	3948 <entry_40+0x8>
    3948:	14000001 	b	394c <entry_40+0xc>
    394c:	14000001 	b	3950 <entry_40+0x10>
    3950:	14000001 	b	3954 <entry_40+0x14>
    3954:	14000001 	b	3958 <entry_40+0x18>
    3958:	14000001 	b	395c <entry_40+0x1c>
    395c:	14000001 	b	3960 <entry_40+0x20>
    3960:	14000001 	b	3964 <entry_40+0x24>
    3964:	14000001 	b	3968 <entry_40+0x28>
    3968:	14000001 	b	396c <entry_40+0x2c>
    396c:	14000001 	b	3970 <entry_40+0x30>
    3970:	14000001 	b	3974 <entry_40+0x34>
    3974:	14000001 	b	3978 <entry_40+0x38>
    3978:	14000001 	b	397c <entry_40+0x3c>
    397c:	14000001 	b	3980 <entry_40+0x40>
    3980:	14000001 	b	3984 <entry_40+0x44>
    3984:	14000001 	b	3988 <entry_40+0x48>
    3988:	14000001 	b	398c <entry_40+0x4c>
    398c:	14000001 	b	3990 <entry_40+0x50>
    3990:	14000001 	b	3994 <entry_40+0x54>
    3994:	14000001 	b	3998 <entry_40+0x58>
    3998:	14000001 	b	399c <entry_40+0x5c>
    399c:	14000001 	b	39a0 <entry_40+0x60>
    39a0:	14000001 	b	39a4 <entry_40+0x64>
    39a4:	14000001 	b	39a8 <entry_40+0x68>
    39a8:	14000001 	b	39ac <entry_40+0x6c>
    39ac:	14000001 	b	39b0 <entry_40+0x70>
    39b0:	14000001 	b	39b4 <entry_40+0x74>
    39b4:	14000001 	b	39b8 <entry_40+0x78>
    39b8:	14000001 	b	39bc <entry_40+0x7c>
    39bc:	14000001 	b	39c0 <entry_40+0x80>
    39c0:	14000001 	b	39c4 <entry_40+0x84>
    39c4:	14000001 	b	39c8 <entry_40+0x88>
    39c8:	14000001 	b	39cc <entry_40+0x8c>
    39cc:	14000001 	b	39d0 <entry_40+0x90>
    39d0:	14000001 	b	39d4 <entry_40+0x94>
    39d4:	14000001 	b	39d8 <entry_40+0x98>
    39d8:	14000001 	b	39dc <entry_40+0x9c>
    39dc:	14000001 	b	39e0 <entry_40+0xa0>
    39e0:	17fffa56 	b	2338 <dummy_done>
    39e4:	d503201f 	nop
    39e8:	d503201f 	nop
    39ec:	d503201f 	nop

00000000000039f0 <entry_41>:
    39f0:	14000001 	b	39f4 <entry_41+0x4>
    39f4:	14000001 	b	39f8 <entry_41+0x8>
    39f8:	14000001 	b	39fc <entry_41+0xc>
    39fc:	14000001 	b	3a00 <entry_41+0x10>
    3a00:	14000001 	b	3a04 <entry_41+0x14>
    3a04:	14000001 	b	3a08 <entry_41+0x18>
    3a08:	14000001 	b	3a0c <entry_41+0x1c>
    3a0c:	14000001 	b	3a10 <entry_41+0x20>
    3a10:	14000001 	b	3a14 <entry_41+0x24>
    3a14:	14000001 	b	3a18 <entry_41+0x28>
    3a18:	14000001 	b	3a1c <entry_41+0x2c>
    3a1c:	14000001 	b	3a20 <entry_41+0x30>
    3a20:	14000001 	b	3a24 <entry_41+0x34>
    3a24:	14000001 	b	3a28 <entry_41+0x38>
    3a28:	14000001 	b	3a2c <entry_41+0x3c>
    3a2c:	14000001 	b	3a30 <entry_41+0x40>
    3a30:	14000001 	b	3a34 <entry_41+0x44>
    3a34:	14000001 	b	3a38 <entry_41+0x48>
    3a38:	14000001 	b	3a3c <entry_41+0x4c>
    3a3c:	14000001 	b	3a40 <entry_41+0x50>
    3a40:	14000001 	b	3a44 <entry_41+0x54>
    3a44:	14000001 	b	3a48 <entry_41+0x58>
    3a48:	14000001 	b	3a4c <entry_41+0x5c>
    3a4c:	14000001 	b	3a50 <entry_41+0x60>
    3a50:	14000001 	b	3a54 <entry_41+0x64>
    3a54:	14000001 	b	3a58 <entry_41+0x68>
    3a58:	14000001 	b	3a5c <entry_41+0x6c>
    3a5c:	14000001 	b	3a60 <entry_41+0x70>
    3a60:	14000001 	b	3a64 <entry_41+0x74>
    3a64:	14000001 	b	3a68 <entry_41+0x78>
    3a68:	14000001 	b	3a6c <entry_41+0x7c>
    3a6c:	14000001 	b	3a70 <entry_41+0x80>
    3a70:	14000001 	b	3a74 <entry_41+0x84>
    3a74:	14000001 	b	3a78 <entry_41+0x88>
    3a78:	14000001 	b	3a7c <entry_41+0x8c>
    3a7c:	14000001 	b	3a80 <entry_41+0x90>
    3a80:	14000001 	b	3a84 <entry_41+0x94>
    3a84:	14000001 	b	3a88 <entry_41+0x98>
    3a88:	14000001 	b	3a8c <entry_41+0x9c>
    3a8c:	14000001 	b	3a90 <entry_41+0xa0>
    3a90:	14000001 	b	3a94 <entry_41+0xa4>
    3a94:	17fffa29 	b	2338 <dummy_done>
    3a98:	d503201f 	nop
    3a9c:	d503201f 	nop

0000000000003aa0 <entry_42>:
    3aa0:	14000001 	b	3aa4 <entry_42+0x4>
    3aa4:	14000001 	b	3aa8 <entry_42+0x8>
    3aa8:	14000001 	b	3aac <entry_42+0xc>
    3aac:	14000001 	b	3ab0 <entry_42+0x10>
    3ab0:	14000001 	b	3ab4 <entry_42+0x14>
    3ab4:	14000001 	b	3ab8 <entry_42+0x18>
    3ab8:	14000001 	b	3abc <entry_42+0x1c>
    3abc:	14000001 	b	3ac0 <entry_42+0x20>
    3ac0:	14000001 	b	3ac4 <entry_42+0x24>
    3ac4:	14000001 	b	3ac8 <entry_42+0x28>
    3ac8:	14000001 	b	3acc <entry_42+0x2c>
    3acc:	14000001 	b	3ad0 <entry_42+0x30>
    3ad0:	14000001 	b	3ad4 <entry_42+0x34>
    3ad4:	14000001 	b	3ad8 <entry_42+0x38>
    3ad8:	14000001 	b	3adc <entry_42+0x3c>
    3adc:	14000001 	b	3ae0 <entry_42+0x40>
    3ae0:	14000001 	b	3ae4 <entry_42+0x44>
    3ae4:	14000001 	b	3ae8 <entry_42+0x48>
    3ae8:	14000001 	b	3aec <entry_42+0x4c>
    3aec:	14000001 	b	3af0 <entry_42+0x50>
    3af0:	14000001 	b	3af4 <entry_42+0x54>
    3af4:	14000001 	b	3af8 <entry_42+0x58>
    3af8:	14000001 	b	3afc <entry_42+0x5c>
    3afc:	14000001 	b	3b00 <entry_42+0x60>
    3b00:	14000001 	b	3b04 <entry_42+0x64>
    3b04:	14000001 	b	3b08 <entry_42+0x68>
    3b08:	14000001 	b	3b0c <entry_42+0x6c>
    3b0c:	14000001 	b	3b10 <entry_42+0x70>
    3b10:	14000001 	b	3b14 <entry_42+0x74>
    3b14:	14000001 	b	3b18 <entry_42+0x78>
    3b18:	14000001 	b	3b1c <entry_42+0x7c>
    3b1c:	14000001 	b	3b20 <entry_42+0x80>
    3b20:	14000001 	b	3b24 <entry_42+0x84>
    3b24:	14000001 	b	3b28 <entry_42+0x88>
    3b28:	14000001 	b	3b2c <entry_42+0x8c>
    3b2c:	14000001 	b	3b30 <entry_42+0x90>
    3b30:	14000001 	b	3b34 <entry_42+0x94>
    3b34:	14000001 	b	3b38 <entry_42+0x98>
    3b38:	14000001 	b	3b3c <entry_42+0x9c>
    3b3c:	14000001 	b	3b40 <entry_42+0xa0>
    3b40:	14000001 	b	3b44 <entry_42+0xa4>
    3b44:	14000001 	b	3b48 <entry_42+0xa8>
    3b48:	17fff9fc 	b	2338 <dummy_done>
    3b4c:	d503201f 	nop

0000000000003b50 <entry_43>:
    3b50:	14000001 	b	3b54 <entry_43+0x4>
    3b54:	14000001 	b	3b58 <entry_43+0x8>
    3b58:	14000001 	b	3b5c <entry_43+0xc>
    3b5c:	14000001 	b	3b60 <entry_43+0x10>
    3b60:	14000001 	b	3b64 <entry_43+0x14>
    3b64:	14000001 	b	3b68 <entry_43+0x18>
    3b68:	14000001 	b	3b6c <entry_43+0x1c>
    3b6c:	14000001 	b	3b70 <entry_43+0x20>
    3b70:	14000001 	b	3b74 <entry_43+0x24>
    3b74:	14000001 	b	3b78 <entry_43+0x28>
    3b78:	14000001 	b	3b7c <entry_43+0x2c>
    3b7c:	14000001 	b	3b80 <entry_43+0x30>
    3b80:	14000001 	b	3b84 <entry_43+0x34>
    3b84:	14000001 	b	3b88 <entry_43+0x38>
    3b88:	14000001 	b	3b8c <entry_43+0x3c>
    3b8c:	14000001 	b	3b90 <entry_43+0x40>
    3b90:	14000001 	b	3b94 <entry_43+0x44>
    3b94:	14000001 	b	3b98 <entry_43+0x48>
    3b98:	14000001 	b	3b9c <entry_43+0x4c>
    3b9c:	14000001 	b	3ba0 <entry_43+0x50>
    3ba0:	14000001 	b	3ba4 <entry_43+0x54>
    3ba4:	14000001 	b	3ba8 <entry_43+0x58>
    3ba8:	14000001 	b	3bac <entry_43+0x5c>
    3bac:	14000001 	b	3bb0 <entry_43+0x60>
    3bb0:	14000001 	b	3bb4 <entry_43+0x64>
    3bb4:	14000001 	b	3bb8 <entry_43+0x68>
    3bb8:	14000001 	b	3bbc <entry_43+0x6c>
    3bbc:	14000001 	b	3bc0 <entry_43+0x70>
    3bc0:	14000001 	b	3bc4 <entry_43+0x74>
    3bc4:	14000001 	b	3bc8 <entry_43+0x78>
    3bc8:	14000001 	b	3bcc <entry_43+0x7c>
    3bcc:	14000001 	b	3bd0 <entry_43+0x80>
    3bd0:	14000001 	b	3bd4 <entry_43+0x84>
    3bd4:	14000001 	b	3bd8 <entry_43+0x88>
    3bd8:	14000001 	b	3bdc <entry_43+0x8c>
    3bdc:	14000001 	b	3be0 <entry_43+0x90>
    3be0:	14000001 	b	3be4 <entry_43+0x94>
    3be4:	14000001 	b	3be8 <entry_43+0x98>
    3be8:	14000001 	b	3bec <entry_43+0x9c>
    3bec:	14000001 	b	3bf0 <entry_43+0xa0>
    3bf0:	14000001 	b	3bf4 <entry_43+0xa4>
    3bf4:	14000001 	b	3bf8 <entry_43+0xa8>
    3bf8:	14000001 	b	3bfc <entry_43+0xac>
    3bfc:	17fff9cf 	b	2338 <dummy_done>

0000000000003c00 <entry_44>:
    3c00:	14000001 	b	3c04 <entry_44+0x4>
    3c04:	14000001 	b	3c08 <entry_44+0x8>
    3c08:	14000001 	b	3c0c <entry_44+0xc>
    3c0c:	14000001 	b	3c10 <entry_44+0x10>
    3c10:	14000001 	b	3c14 <entry_44+0x14>
    3c14:	14000001 	b	3c18 <entry_44+0x18>
    3c18:	14000001 	b	3c1c <entry_44+0x1c>
    3c1c:	14000001 	b	3c20 <entry_44+0x20>
    3c20:	14000001 	b	3c24 <entry_44+0x24>
    3c24:	14000001 	b	3c28 <entry_44+0x28>
    3c28:	14000001 	b	3c2c <entry_44+0x2c>
    3c2c:	14000001 	b	3c30 <entry_44+0x30>
    3c30:	14000001 	b	3c34 <entry_44+0x34>
    3c34:	14000001 	b	3c38 <entry_44+0x38>
    3c38:	14000001 	b	3c3c <entry_44+0x3c>
    3c3c:	14000001 	b	3c40 <entry_44+0x40>
    3c40:	14000001 	b	3c44 <entry_44+0x44>
    3c44:	14000001 	b	3c48 <entry_44+0x48>
    3c48:	14000001 	b	3c4c <entry_44+0x4c>
    3c4c:	14000001 	b	3c50 <entry_44+0x50>
    3c50:	14000001 	b	3c54 <entry_44+0x54>
    3c54:	14000001 	b	3c58 <entry_44+0x58>
    3c58:	14000001 	b	3c5c <entry_44+0x5c>
    3c5c:	14000001 	b	3c60 <entry_44+0x60>
    3c60:	14000001 	b	3c64 <entry_44+0x64>
    3c64:	14000001 	b	3c68 <entry_44+0x68>
    3c68:	14000001 	b	3c6c <entry_44+0x6c>
    3c6c:	14000001 	b	3c70 <entry_44+0x70>
    3c70:	14000001 	b	3c74 <entry_44+0x74>
    3c74:	14000001 	b	3c78 <entry_44+0x78>
    3c78:	14000001 	b	3c7c <entry_44+0x7c>
    3c7c:	14000001 	b	3c80 <entry_44+0x80>
    3c80:	14000001 	b	3c84 <entry_44+0x84>
    3c84:	14000001 	b	3c88 <entry_44+0x88>
    3c88:	14000001 	b	3c8c <entry_44+0x8c>
    3c8c:	14000001 	b	3c90 <entry_44+0x90>
    3c90:	14000001 	b	3c94 <entry_44+0x94>
    3c94:	14000001 	b	3c98 <entry_44+0x98>
    3c98:	14000001 	b	3c9c <entry_44+0x9c>
    3c9c:	14000001 	b	3ca0 <entry_44+0xa0>
    3ca0:	14000001 	b	3ca4 <entry_44+0xa4>
    3ca4:	14000001 	b	3ca8 <entry_44+0xa8>
    3ca8:	14000001 	b	3cac <entry_44+0xac>
    3cac:	14000001 	b	3cb0 <entry_44+0xb0>
    3cb0:	17fff9a2 	b	2338 <dummy_done>
    3cb4:	d503201f 	nop
    3cb8:	d503201f 	nop
    3cbc:	d503201f 	nop

0000000000003cc0 <entry_45>:
    3cc0:	14000001 	b	3cc4 <entry_45+0x4>
    3cc4:	14000001 	b	3cc8 <entry_45+0x8>
    3cc8:	14000001 	b	3ccc <entry_45+0xc>
    3ccc:	14000001 	b	3cd0 <entry_45+0x10>
    3cd0:	14000001 	b	3cd4 <entry_45+0x14>
    3cd4:	14000001 	b	3cd8 <entry_45+0x18>
    3cd8:	14000001 	b	3cdc <entry_45+0x1c>
    3cdc:	14000001 	b	3ce0 <entry_45+0x20>
    3ce0:	14000001 	b	3ce4 <entry_45+0x24>
    3ce4:	14000001 	b	3ce8 <entry_45+0x28>
    3ce8:	14000001 	b	3cec <entry_45+0x2c>
    3cec:	14000001 	b	3cf0 <entry_45+0x30>
    3cf0:	14000001 	b	3cf4 <entry_45+0x34>
    3cf4:	14000001 	b	3cf8 <entry_45+0x38>
    3cf8:	14000001 	b	3cfc <entry_45+0x3c>
    3cfc:	14000001 	b	3d00 <entry_45+0x40>
    3d00:	14000001 	b	3d04 <entry_45+0x44>
    3d04:	14000001 	b	3d08 <entry_45+0x48>
    3d08:	14000001 	b	3d0c <entry_45+0x4c>
    3d0c:	14000001 	b	3d10 <entry_45+0x50>
    3d10:	14000001 	b	3d14 <entry_45+0x54>
    3d14:	14000001 	b	3d18 <entry_45+0x58>
    3d18:	14000001 	b	3d1c <entry_45+0x5c>
    3d1c:	14000001 	b	3d20 <entry_45+0x60>
    3d20:	14000001 	b	3d24 <entry_45+0x64>
    3d24:	14000001 	b	3d28 <entry_45+0x68>
    3d28:	14000001 	b	3d2c <entry_45+0x6c>
    3d2c:	14000001 	b	3d30 <entry_45+0x70>
    3d30:	14000001 	b	3d34 <entry_45+0x74>
    3d34:	14000001 	b	3d38 <entry_45+0x78>
    3d38:	14000001 	b	3d3c <entry_45+0x7c>
    3d3c:	14000001 	b	3d40 <entry_45+0x80>
    3d40:	14000001 	b	3d44 <entry_45+0x84>
    3d44:	14000001 	b	3d48 <entry_45+0x88>
    3d48:	14000001 	b	3d4c <entry_45+0x8c>
    3d4c:	14000001 	b	3d50 <entry_45+0x90>
    3d50:	14000001 	b	3d54 <entry_45+0x94>
    3d54:	14000001 	b	3d58 <entry_45+0x98>
    3d58:	14000001 	b	3d5c <entry_45+0x9c>
    3d5c:	14000001 	b	3d60 <entry_45+0xa0>
    3d60:	14000001 	b	3d64 <entry_45+0xa4>
    3d64:	14000001 	b	3d68 <entry_45+0xa8>
    3d68:	14000001 	b	3d6c <entry_45+0xac>
    3d6c:	14000001 	b	3d70 <entry_45+0xb0>
    3d70:	14000001 	b	3d74 <entry_45+0xb4>
    3d74:	17fff971 	b	2338 <dummy_done>
    3d78:	d503201f 	nop
    3d7c:	d503201f 	nop

0000000000003d80 <entry_46>:
    3d80:	14000001 	b	3d84 <entry_46+0x4>
    3d84:	14000001 	b	3d88 <entry_46+0x8>
    3d88:	14000001 	b	3d8c <entry_46+0xc>
    3d8c:	14000001 	b	3d90 <entry_46+0x10>
    3d90:	14000001 	b	3d94 <entry_46+0x14>
    3d94:	14000001 	b	3d98 <entry_46+0x18>
    3d98:	14000001 	b	3d9c <entry_46+0x1c>
    3d9c:	14000001 	b	3da0 <entry_46+0x20>
    3da0:	14000001 	b	3da4 <entry_46+0x24>
    3da4:	14000001 	b	3da8 <entry_46+0x28>
    3da8:	14000001 	b	3dac <entry_46+0x2c>
    3dac:	14000001 	b	3db0 <entry_46+0x30>
    3db0:	14000001 	b	3db4 <entry_46+0x34>
    3db4:	14000001 	b	3db8 <entry_46+0x38>
    3db8:	14000001 	b	3dbc <entry_46+0x3c>
    3dbc:	14000001 	b	3dc0 <entry_46+0x40>
    3dc0:	14000001 	b	3dc4 <entry_46+0x44>
    3dc4:	14000001 	b	3dc8 <entry_46+0x48>
    3dc8:	14000001 	b	3dcc <entry_46+0x4c>
    3dcc:	14000001 	b	3dd0 <entry_46+0x50>
    3dd0:	14000001 	b	3dd4 <entry_46+0x54>
    3dd4:	14000001 	b	3dd8 <entry_46+0x58>
    3dd8:	14000001 	b	3ddc <entry_46+0x5c>
    3ddc:	14000001 	b	3de0 <entry_46+0x60>
    3de0:	14000001 	b	3de4 <entry_46+0x64>
    3de4:	14000001 	b	3de8 <entry_46+0x68>
    3de8:	14000001 	b	3dec <entry_46+0x6c>
    3dec:	14000001 	b	3df0 <entry_46+0x70>
    3df0:	14000001 	b	3df4 <entry_46+0x74>
    3df4:	14000001 	b	3df8 <entry_46+0x78>
    3df8:	14000001 	b	3dfc <entry_46+0x7c>
    3dfc:	14000001 	b	3e00 <entry_46+0x80>
    3e00:	14000001 	b	3e04 <entry_46+0x84>
    3e04:	14000001 	b	3e08 <entry_46+0x88>
    3e08:	14000001 	b	3e0c <entry_46+0x8c>
    3e0c:	14000001 	b	3e10 <entry_46+0x90>
    3e10:	14000001 	b	3e14 <entry_46+0x94>
    3e14:	14000001 	b	3e18 <entry_46+0x98>
    3e18:	14000001 	b	3e1c <entry_46+0x9c>
    3e1c:	14000001 	b	3e20 <entry_46+0xa0>
    3e20:	14000001 	b	3e24 <entry_46+0xa4>
    3e24:	14000001 	b	3e28 <entry_46+0xa8>
    3e28:	14000001 	b	3e2c <entry_46+0xac>
    3e2c:	14000001 	b	3e30 <entry_46+0xb0>
    3e30:	14000001 	b	3e34 <entry_46+0xb4>
    3e34:	14000001 	b	3e38 <entry_46+0xb8>
    3e38:	17fff940 	b	2338 <dummy_done>
    3e3c:	d503201f 	nop

0000000000003e40 <entry_47>:
    3e40:	14000001 	b	3e44 <entry_47+0x4>
    3e44:	14000001 	b	3e48 <entry_47+0x8>
    3e48:	14000001 	b	3e4c <entry_47+0xc>
    3e4c:	14000001 	b	3e50 <entry_47+0x10>
    3e50:	14000001 	b	3e54 <entry_47+0x14>
    3e54:	14000001 	b	3e58 <entry_47+0x18>
    3e58:	14000001 	b	3e5c <entry_47+0x1c>
    3e5c:	14000001 	b	3e60 <entry_47+0x20>
    3e60:	14000001 	b	3e64 <entry_47+0x24>
    3e64:	14000001 	b	3e68 <entry_47+0x28>
    3e68:	14000001 	b	3e6c <entry_47+0x2c>
    3e6c:	14000001 	b	3e70 <entry_47+0x30>
    3e70:	14000001 	b	3e74 <entry_47+0x34>
    3e74:	14000001 	b	3e78 <entry_47+0x38>
    3e78:	14000001 	b	3e7c <entry_47+0x3c>
    3e7c:	14000001 	b	3e80 <entry_47+0x40>
    3e80:	14000001 	b	3e84 <entry_47+0x44>
    3e84:	14000001 	b	3e88 <entry_47+0x48>
    3e88:	14000001 	b	3e8c <entry_47+0x4c>
    3e8c:	14000001 	b	3e90 <entry_47+0x50>
    3e90:	14000001 	b	3e94 <entry_47+0x54>
    3e94:	14000001 	b	3e98 <entry_47+0x58>
    3e98:	14000001 	b	3e9c <entry_47+0x5c>
    3e9c:	14000001 	b	3ea0 <entry_47+0x60>
    3ea0:	14000001 	b	3ea4 <entry_47+0x64>
    3ea4:	14000001 	b	3ea8 <entry_47+0x68>
    3ea8:	14000001 	b	3eac <entry_47+0x6c>
    3eac:	14000001 	b	3eb0 <entry_47+0x70>
    3eb0:	14000001 	b	3eb4 <entry_47+0x74>
    3eb4:	14000001 	b	3eb8 <entry_47+0x78>
    3eb8:	14000001 	b	3ebc <entry_47+0x7c>
    3ebc:	14000001 	b	3ec0 <entry_47+0x80>
    3ec0:	14000001 	b	3ec4 <entry_47+0x84>
    3ec4:	14000001 	b	3ec8 <entry_47+0x88>
    3ec8:	14000001 	b	3ecc <entry_47+0x8c>
    3ecc:	14000001 	b	3ed0 <entry_47+0x90>
    3ed0:	14000001 	b	3ed4 <entry_47+0x94>
    3ed4:	14000001 	b	3ed8 <entry_47+0x98>
    3ed8:	14000001 	b	3edc <entry_47+0x9c>
    3edc:	14000001 	b	3ee0 <entry_47+0xa0>
    3ee0:	14000001 	b	3ee4 <entry_47+0xa4>
    3ee4:	14000001 	b	3ee8 <entry_47+0xa8>
    3ee8:	14000001 	b	3eec <entry_47+0xac>
    3eec:	14000001 	b	3ef0 <entry_47+0xb0>
    3ef0:	14000001 	b	3ef4 <entry_47+0xb4>
    3ef4:	14000001 	b	3ef8 <entry_47+0xb8>
    3ef8:	14000001 	b	3efc <entry_47+0xbc>
    3efc:	17fff90f 	b	2338 <dummy_done>

0000000000003f00 <entry_48>:
    3f00:	14000001 	b	3f04 <entry_48+0x4>
    3f04:	14000001 	b	3f08 <entry_48+0x8>
    3f08:	14000001 	b	3f0c <entry_48+0xc>
    3f0c:	14000001 	b	3f10 <entry_48+0x10>
    3f10:	14000001 	b	3f14 <entry_48+0x14>
    3f14:	14000001 	b	3f18 <entry_48+0x18>
    3f18:	14000001 	b	3f1c <entry_48+0x1c>
    3f1c:	14000001 	b	3f20 <entry_48+0x20>
    3f20:	14000001 	b	3f24 <entry_48+0x24>
    3f24:	14000001 	b	3f28 <entry_48+0x28>
    3f28:	14000001 	b	3f2c <entry_48+0x2c>
    3f2c:	14000001 	b	3f30 <entry_48+0x30>
    3f30:	14000001 	b	3f34 <entry_48+0x34>
    3f34:	14000001 	b	3f38 <entry_48+0x38>
    3f38:	14000001 	b	3f3c <entry_48+0x3c>
    3f3c:	14000001 	b	3f40 <entry_48+0x40>
    3f40:	14000001 	b	3f44 <entry_48+0x44>
    3f44:	14000001 	b	3f48 <entry_48+0x48>
    3f48:	14000001 	b	3f4c <entry_48+0x4c>
    3f4c:	14000001 	b	3f50 <entry_48+0x50>
    3f50:	14000001 	b	3f54 <entry_48+0x54>
    3f54:	14000001 	b	3f58 <entry_48+0x58>
    3f58:	14000001 	b	3f5c <entry_48+0x5c>
    3f5c:	14000001 	b	3f60 <entry_48+0x60>
    3f60:	14000001 	b	3f64 <entry_48+0x64>
    3f64:	14000001 	b	3f68 <entry_48+0x68>
    3f68:	14000001 	b	3f6c <entry_48+0x6c>
    3f6c:	14000001 	b	3f70 <entry_48+0x70>
    3f70:	14000001 	b	3f74 <entry_48+0x74>
    3f74:	14000001 	b	3f78 <entry_48+0x78>
    3f78:	14000001 	b	3f7c <entry_48+0x7c>
    3f7c:	14000001 	b	3f80 <entry_48+0x80>
    3f80:	14000001 	b	3f84 <entry_48+0x84>
    3f84:	14000001 	b	3f88 <entry_48+0x88>
    3f88:	14000001 	b	3f8c <entry_48+0x8c>
    3f8c:	14000001 	b	3f90 <entry_48+0x90>
    3f90:	14000001 	b	3f94 <entry_48+0x94>
    3f94:	14000001 	b	3f98 <entry_48+0x98>
    3f98:	14000001 	b	3f9c <entry_48+0x9c>
    3f9c:	14000001 	b	3fa0 <entry_48+0xa0>
    3fa0:	14000001 	b	3fa4 <entry_48+0xa4>
    3fa4:	14000001 	b	3fa8 <entry_48+0xa8>
    3fa8:	14000001 	b	3fac <entry_48+0xac>
    3fac:	14000001 	b	3fb0 <entry_48+0xb0>
    3fb0:	14000001 	b	3fb4 <entry_48+0xb4>
    3fb4:	14000001 	b	3fb8 <entry_48+0xb8>
    3fb8:	14000001 	b	3fbc <entry_48+0xbc>
    3fbc:	14000001 	b	3fc0 <entry_48+0xc0>
    3fc0:	17fff8de 	b	2338 <dummy_done>
    3fc4:	d503201f 	nop
    3fc8:	d503201f 	nop
    3fcc:	d503201f 	nop

0000000000003fd0 <entry_49>:
    3fd0:	14000001 	b	3fd4 <entry_49+0x4>
    3fd4:	14000001 	b	3fd8 <entry_49+0x8>
    3fd8:	14000001 	b	3fdc <entry_49+0xc>
    3fdc:	14000001 	b	3fe0 <entry_49+0x10>
    3fe0:	14000001 	b	3fe4 <entry_49+0x14>
    3fe4:	14000001 	b	3fe8 <entry_49+0x18>
    3fe8:	14000001 	b	3fec <entry_49+0x1c>
    3fec:	14000001 	b	3ff0 <entry_49+0x20>
    3ff0:	14000001 	b	3ff4 <entry_49+0x24>
    3ff4:	14000001 	b	3ff8 <entry_49+0x28>
    3ff8:	14000001 	b	3ffc <entry_49+0x2c>
    3ffc:	14000001 	b	4000 <entry_49+0x30>
    4000:	14000001 	b	4004 <entry_49+0x34>
    4004:	14000001 	b	4008 <entry_49+0x38>
    4008:	14000001 	b	400c <entry_49+0x3c>
    400c:	14000001 	b	4010 <entry_49+0x40>
    4010:	14000001 	b	4014 <entry_49+0x44>
    4014:	14000001 	b	4018 <entry_49+0x48>
    4018:	14000001 	b	401c <entry_49+0x4c>
    401c:	14000001 	b	4020 <entry_49+0x50>
    4020:	14000001 	b	4024 <entry_49+0x54>
    4024:	14000001 	b	4028 <entry_49+0x58>
    4028:	14000001 	b	402c <entry_49+0x5c>
    402c:	14000001 	b	4030 <entry_49+0x60>
    4030:	14000001 	b	4034 <entry_49+0x64>
    4034:	14000001 	b	4038 <entry_49+0x68>
    4038:	14000001 	b	403c <entry_49+0x6c>
    403c:	14000001 	b	4040 <entry_49+0x70>
    4040:	14000001 	b	4044 <entry_49+0x74>
    4044:	14000001 	b	4048 <entry_49+0x78>
    4048:	14000001 	b	404c <entry_49+0x7c>
    404c:	14000001 	b	4050 <entry_49+0x80>
    4050:	14000001 	b	4054 <entry_49+0x84>
    4054:	14000001 	b	4058 <entry_49+0x88>
    4058:	14000001 	b	405c <entry_49+0x8c>
    405c:	14000001 	b	4060 <entry_49+0x90>
    4060:	14000001 	b	4064 <entry_49+0x94>
    4064:	14000001 	b	4068 <entry_49+0x98>
    4068:	14000001 	b	406c <entry_49+0x9c>
    406c:	14000001 	b	4070 <entry_49+0xa0>
    4070:	14000001 	b	4074 <entry_49+0xa4>
    4074:	14000001 	b	4078 <entry_49+0xa8>
    4078:	14000001 	b	407c <entry_49+0xac>
    407c:	14000001 	b	4080 <entry_49+0xb0>
    4080:	14000001 	b	4084 <entry_49+0xb4>
    4084:	14000001 	b	4088 <entry_49+0xb8>
    4088:	14000001 	b	408c <entry_49+0xbc>
    408c:	14000001 	b	4090 <entry_49+0xc0>
    4090:	14000001 	b	4094 <entry_49+0xc4>
    4094:	17fff8a9 	b	2338 <dummy_done>
    4098:	d503201f 	nop
    409c:	d503201f 	nop

00000000000040a0 <entry_50>:
    40a0:	14000001 	b	40a4 <entry_50+0x4>
    40a4:	14000001 	b	40a8 <entry_50+0x8>
    40a8:	14000001 	b	40ac <entry_50+0xc>
    40ac:	14000001 	b	40b0 <entry_50+0x10>
    40b0:	14000001 	b	40b4 <entry_50+0x14>
    40b4:	14000001 	b	40b8 <entry_50+0x18>
    40b8:	14000001 	b	40bc <entry_50+0x1c>
    40bc:	14000001 	b	40c0 <entry_50+0x20>
    40c0:	14000001 	b	40c4 <entry_50+0x24>
    40c4:	14000001 	b	40c8 <entry_50+0x28>
    40c8:	14000001 	b	40cc <entry_50+0x2c>
    40cc:	14000001 	b	40d0 <entry_50+0x30>
    40d0:	14000001 	b	40d4 <entry_50+0x34>
    40d4:	14000001 	b	40d8 <entry_50+0x38>
    40d8:	14000001 	b	40dc <entry_50+0x3c>
    40dc:	14000001 	b	40e0 <entry_50+0x40>
    40e0:	14000001 	b	40e4 <entry_50+0x44>
    40e4:	14000001 	b	40e8 <entry_50+0x48>
    40e8:	14000001 	b	40ec <entry_50+0x4c>
    40ec:	14000001 	b	40f0 <entry_50+0x50>
    40f0:	14000001 	b	40f4 <entry_50+0x54>
    40f4:	14000001 	b	40f8 <entry_50+0x58>
    40f8:	14000001 	b	40fc <entry_50+0x5c>
    40fc:	14000001 	b	4100 <entry_50+0x60>
    4100:	14000001 	b	4104 <entry_50+0x64>
    4104:	14000001 	b	4108 <entry_50+0x68>
    4108:	14000001 	b	410c <entry_50+0x6c>
    410c:	14000001 	b	4110 <entry_50+0x70>
    4110:	14000001 	b	4114 <entry_50+0x74>
    4114:	14000001 	b	4118 <entry_50+0x78>
    4118:	14000001 	b	411c <entry_50+0x7c>
    411c:	14000001 	b	4120 <entry_50+0x80>
    4120:	14000001 	b	4124 <entry_50+0x84>
    4124:	14000001 	b	4128 <entry_50+0x88>
    4128:	14000001 	b	412c <entry_50+0x8c>
    412c:	14000001 	b	4130 <entry_50+0x90>
    4130:	14000001 	b	4134 <entry_50+0x94>
    4134:	14000001 	b	4138 <entry_50+0x98>
    4138:	14000001 	b	413c <entry_50+0x9c>
    413c:	14000001 	b	4140 <entry_50+0xa0>
    4140:	14000001 	b	4144 <entry_50+0xa4>
    4144:	14000001 	b	4148 <entry_50+0xa8>
    4148:	14000001 	b	414c <entry_50+0xac>
    414c:	14000001 	b	4150 <entry_50+0xb0>
    4150:	14000001 	b	4154 <entry_50+0xb4>
    4154:	14000001 	b	4158 <entry_50+0xb8>
    4158:	14000001 	b	415c <entry_50+0xbc>
    415c:	14000001 	b	4160 <entry_50+0xc0>
    4160:	14000001 	b	4164 <entry_50+0xc4>
    4164:	14000001 	b	4168 <entry_50+0xc8>
    4168:	17fff874 	b	2338 <dummy_done>
    416c:	d503201f 	nop

0000000000004170 <entry_51>:
    4170:	14000001 	b	4174 <entry_51+0x4>
    4174:	14000001 	b	4178 <entry_51+0x8>
    4178:	14000001 	b	417c <entry_51+0xc>
    417c:	14000001 	b	4180 <entry_51+0x10>
    4180:	14000001 	b	4184 <entry_51+0x14>
    4184:	14000001 	b	4188 <entry_51+0x18>
    4188:	14000001 	b	418c <entry_51+0x1c>
    418c:	14000001 	b	4190 <entry_51+0x20>
    4190:	14000001 	b	4194 <entry_51+0x24>
    4194:	14000001 	b	4198 <entry_51+0x28>
    4198:	14000001 	b	419c <entry_51+0x2c>
    419c:	14000001 	b	41a0 <entry_51+0x30>
    41a0:	14000001 	b	41a4 <entry_51+0x34>
    41a4:	14000001 	b	41a8 <entry_51+0x38>
    41a8:	14000001 	b	41ac <entry_51+0x3c>
    41ac:	14000001 	b	41b0 <entry_51+0x40>
    41b0:	14000001 	b	41b4 <entry_51+0x44>
    41b4:	14000001 	b	41b8 <entry_51+0x48>
    41b8:	14000001 	b	41bc <entry_51+0x4c>
    41bc:	14000001 	b	41c0 <entry_51+0x50>
    41c0:	14000001 	b	41c4 <entry_51+0x54>
    41c4:	14000001 	b	41c8 <entry_51+0x58>
    41c8:	14000001 	b	41cc <entry_51+0x5c>
    41cc:	14000001 	b	41d0 <entry_51+0x60>
    41d0:	14000001 	b	41d4 <entry_51+0x64>
    41d4:	14000001 	b	41d8 <entry_51+0x68>
    41d8:	14000001 	b	41dc <entry_51+0x6c>
    41dc:	14000001 	b	41e0 <entry_51+0x70>
    41e0:	14000001 	b	41e4 <entry_51+0x74>
    41e4:	14000001 	b	41e8 <entry_51+0x78>
    41e8:	14000001 	b	41ec <entry_51+0x7c>
    41ec:	14000001 	b	41f0 <entry_51+0x80>
    41f0:	14000001 	b	41f4 <entry_51+0x84>
    41f4:	14000001 	b	41f8 <entry_51+0x88>
    41f8:	14000001 	b	41fc <entry_51+0x8c>
    41fc:	14000001 	b	4200 <entry_51+0x90>
    4200:	14000001 	b	4204 <entry_51+0x94>
    4204:	14000001 	b	4208 <entry_51+0x98>
    4208:	14000001 	b	420c <entry_51+0x9c>
    420c:	14000001 	b	4210 <entry_51+0xa0>
    4210:	14000001 	b	4214 <entry_51+0xa4>
    4214:	14000001 	b	4218 <entry_51+0xa8>
    4218:	14000001 	b	421c <entry_51+0xac>
    421c:	14000001 	b	4220 <entry_51+0xb0>
    4220:	14000001 	b	4224 <entry_51+0xb4>
    4224:	14000001 	b	4228 <entry_51+0xb8>
    4228:	14000001 	b	422c <entry_51+0xbc>
    422c:	14000001 	b	4230 <entry_51+0xc0>
    4230:	14000001 	b	4234 <entry_51+0xc4>
    4234:	14000001 	b	4238 <entry_51+0xc8>
    4238:	14000001 	b	423c <entry_51+0xcc>
    423c:	17fff83f 	b	2338 <dummy_done>

0000000000004240 <entry_52>:
    4240:	14000001 	b	4244 <entry_52+0x4>
    4244:	14000001 	b	4248 <entry_52+0x8>
    4248:	14000001 	b	424c <entry_52+0xc>
    424c:	14000001 	b	4250 <entry_52+0x10>
    4250:	14000001 	b	4254 <entry_52+0x14>
    4254:	14000001 	b	4258 <entry_52+0x18>
    4258:	14000001 	b	425c <entry_52+0x1c>
    425c:	14000001 	b	4260 <entry_52+0x20>
    4260:	14000001 	b	4264 <entry_52+0x24>
    4264:	14000001 	b	4268 <entry_52+0x28>
    4268:	14000001 	b	426c <entry_52+0x2c>
    426c:	14000001 	b	4270 <entry_52+0x30>
    4270:	14000001 	b	4274 <entry_52+0x34>
    4274:	14000001 	b	4278 <entry_52+0x38>
    4278:	14000001 	b	427c <entry_52+0x3c>
    427c:	14000001 	b	4280 <entry_52+0x40>
    4280:	14000001 	b	4284 <entry_52+0x44>
    4284:	14000001 	b	4288 <entry_52+0x48>
    4288:	14000001 	b	428c <entry_52+0x4c>
    428c:	14000001 	b	4290 <entry_52+0x50>
    4290:	14000001 	b	4294 <entry_52+0x54>
    4294:	14000001 	b	4298 <entry_52+0x58>
    4298:	14000001 	b	429c <entry_52+0x5c>
    429c:	14000001 	b	42a0 <entry_52+0x60>
    42a0:	14000001 	b	42a4 <entry_52+0x64>
    42a4:	14000001 	b	42a8 <entry_52+0x68>
    42a8:	14000001 	b	42ac <entry_52+0x6c>
    42ac:	14000001 	b	42b0 <entry_52+0x70>
    42b0:	14000001 	b	42b4 <entry_52+0x74>
    42b4:	14000001 	b	42b8 <entry_52+0x78>
    42b8:	14000001 	b	42bc <entry_52+0x7c>
    42bc:	14000001 	b	42c0 <entry_52+0x80>
    42c0:	14000001 	b	42c4 <entry_52+0x84>
    42c4:	14000001 	b	42c8 <entry_52+0x88>
    42c8:	14000001 	b	42cc <entry_52+0x8c>
    42cc:	14000001 	b	42d0 <entry_52+0x90>
    42d0:	14000001 	b	42d4 <entry_52+0x94>
    42d4:	14000001 	b	42d8 <entry_52+0x98>
    42d8:	14000001 	b	42dc <entry_52+0x9c>
    42dc:	14000001 	b	42e0 <entry_52+0xa0>
    42e0:	14000001 	b	42e4 <entry_52+0xa4>
    42e4:	14000001 	b	42e8 <entry_52+0xa8>
    42e8:	14000001 	b	42ec <entry_52+0xac>
    42ec:	14000001 	b	42f0 <entry_52+0xb0>
    42f0:	14000001 	b	42f4 <entry_52+0xb4>
    42f4:	14000001 	b	42f8 <entry_52+0xb8>
    42f8:	14000001 	b	42fc <entry_52+0xbc>
    42fc:	14000001 	b	4300 <entry_52+0xc0>
    4300:	14000001 	b	4304 <entry_52+0xc4>
    4304:	14000001 	b	4308 <entry_52+0xc8>
    4308:	14000001 	b	430c <entry_52+0xcc>
    430c:	14000001 	b	4310 <entry_52+0xd0>
    4310:	17fff80a 	b	2338 <dummy_done>
    4314:	d503201f 	nop
    4318:	d503201f 	nop
    431c:	d503201f 	nop

0000000000004320 <entry_53>:
    4320:	14000001 	b	4324 <entry_53+0x4>
    4324:	14000001 	b	4328 <entry_53+0x8>
    4328:	14000001 	b	432c <entry_53+0xc>
    432c:	14000001 	b	4330 <entry_53+0x10>
    4330:	14000001 	b	4334 <entry_53+0x14>
    4334:	14000001 	b	4338 <entry_53+0x18>
    4338:	14000001 	b	433c <entry_53+0x1c>
    433c:	14000001 	b	4340 <entry_53+0x20>
    4340:	14000001 	b	4344 <entry_53+0x24>
    4344:	14000001 	b	4348 <entry_53+0x28>
    4348:	14000001 	b	434c <entry_53+0x2c>
    434c:	14000001 	b	4350 <entry_53+0x30>
    4350:	14000001 	b	4354 <entry_53+0x34>
    4354:	14000001 	b	4358 <entry_53+0x38>
    4358:	14000001 	b	435c <entry_53+0x3c>
    435c:	14000001 	b	4360 <entry_53+0x40>
    4360:	14000001 	b	4364 <entry_53+0x44>
    4364:	14000001 	b	4368 <entry_53+0x48>
    4368:	14000001 	b	436c <entry_53+0x4c>
    436c:	14000001 	b	4370 <entry_53+0x50>
    4370:	14000001 	b	4374 <entry_53+0x54>
    4374:	14000001 	b	4378 <entry_53+0x58>
    4378:	14000001 	b	437c <entry_53+0x5c>
    437c:	14000001 	b	4380 <entry_53+0x60>
    4380:	14000001 	b	4384 <entry_53+0x64>
    4384:	14000001 	b	4388 <entry_53+0x68>
    4388:	14000001 	b	438c <entry_53+0x6c>
    438c:	14000001 	b	4390 <entry_53+0x70>
    4390:	14000001 	b	4394 <entry_53+0x74>
    4394:	14000001 	b	4398 <entry_53+0x78>
    4398:	14000001 	b	439c <entry_53+0x7c>
    439c:	14000001 	b	43a0 <entry_53+0x80>
    43a0:	14000001 	b	43a4 <entry_53+0x84>
    43a4:	14000001 	b	43a8 <entry_53+0x88>
    43a8:	14000001 	b	43ac <entry_53+0x8c>
    43ac:	14000001 	b	43b0 <entry_53+0x90>
    43b0:	14000001 	b	43b4 <entry_53+0x94>
    43b4:	14000001 	b	43b8 <entry_53+0x98>
    43b8:	14000001 	b	43bc <entry_53+0x9c>
    43bc:	14000001 	b	43c0 <entry_53+0xa0>
    43c0:	14000001 	b	43c4 <entry_53+0xa4>
    43c4:	14000001 	b	43c8 <entry_53+0xa8>
    43c8:	14000001 	b	43cc <entry_53+0xac>
    43cc:	14000001 	b	43d0 <entry_53+0xb0>
    43d0:	14000001 	b	43d4 <entry_53+0xb4>
    43d4:	14000001 	b	43d8 <entry_53+0xb8>
    43d8:	14000001 	b	43dc <entry_53+0xbc>
    43dc:	14000001 	b	43e0 <entry_53+0xc0>
    43e0:	14000001 	b	43e4 <entry_53+0xc4>
    43e4:	14000001 	b	43e8 <entry_53+0xc8>
    43e8:	14000001 	b	43ec <entry_53+0xcc>
    43ec:	14000001 	b	43f0 <entry_53+0xd0>
    43f0:	14000001 	b	43f4 <entry_53+0xd4>
    43f4:	17fff7d1 	b	2338 <dummy_done>
    43f8:	d503201f 	nop
    43fc:	d503201f 	nop

0000000000004400 <entry_54>:
    4400:	14000001 	b	4404 <entry_54+0x4>
    4404:	14000001 	b	4408 <entry_54+0x8>
    4408:	14000001 	b	440c <entry_54+0xc>
    440c:	14000001 	b	4410 <entry_54+0x10>
    4410:	14000001 	b	4414 <entry_54+0x14>
    4414:	14000001 	b	4418 <entry_54+0x18>
    4418:	14000001 	b	441c <entry_54+0x1c>
    441c:	14000001 	b	4420 <entry_54+0x20>
    4420:	14000001 	b	4424 <entry_54+0x24>
    4424:	14000001 	b	4428 <entry_54+0x28>
    4428:	14000001 	b	442c <entry_54+0x2c>
    442c:	14000001 	b	4430 <entry_54+0x30>
    4430:	14000001 	b	4434 <entry_54+0x34>
    4434:	14000001 	b	4438 <entry_54+0x38>
    4438:	14000001 	b	443c <entry_54+0x3c>
    443c:	14000001 	b	4440 <entry_54+0x40>
    4440:	14000001 	b	4444 <entry_54+0x44>
    4444:	14000001 	b	4448 <entry_54+0x48>
    4448:	14000001 	b	444c <entry_54+0x4c>
    444c:	14000001 	b	4450 <entry_54+0x50>
    4450:	14000001 	b	4454 <entry_54+0x54>
    4454:	14000001 	b	4458 <entry_54+0x58>
    4458:	14000001 	b	445c <entry_54+0x5c>
    445c:	14000001 	b	4460 <entry_54+0x60>
    4460:	14000001 	b	4464 <entry_54+0x64>
    4464:	14000001 	b	4468 <entry_54+0x68>
    4468:	14000001 	b	446c <entry_54+0x6c>
    446c:	14000001 	b	4470 <entry_54+0x70>
    4470:	14000001 	b	4474 <entry_54+0x74>
    4474:	14000001 	b	4478 <entry_54+0x78>
    4478:	14000001 	b	447c <entry_54+0x7c>
    447c:	14000001 	b	4480 <entry_54+0x80>
    4480:	14000001 	b	4484 <entry_54+0x84>
    4484:	14000001 	b	4488 <entry_54+0x88>
    4488:	14000001 	b	448c <entry_54+0x8c>
    448c:	14000001 	b	4490 <entry_54+0x90>
    4490:	14000001 	b	4494 <entry_54+0x94>
    4494:	14000001 	b	4498 <entry_54+0x98>
    4498:	14000001 	b	449c <entry_54+0x9c>
    449c:	14000001 	b	44a0 <entry_54+0xa0>
    44a0:	14000001 	b	44a4 <entry_54+0xa4>
    44a4:	14000001 	b	44a8 <entry_54+0xa8>
    44a8:	14000001 	b	44ac <entry_54+0xac>
    44ac:	14000001 	b	44b0 <entry_54+0xb0>
    44b0:	14000001 	b	44b4 <entry_54+0xb4>
    44b4:	14000001 	b	44b8 <entry_54+0xb8>
    44b8:	14000001 	b	44bc <entry_54+0xbc>
    44bc:	14000001 	b	44c0 <entry_54+0xc0>
    44c0:	14000001 	b	44c4 <entry_54+0xc4>
    44c4:	14000001 	b	44c8 <entry_54+0xc8>
    44c8:	14000001 	b	44cc <entry_54+0xcc>
    44cc:	14000001 	b	44d0 <entry_54+0xd0>
    44d0:	14000001 	b	44d4 <entry_54+0xd4>
    44d4:	14000001 	b	44d8 <entry_54+0xd8>
    44d8:	17fff798 	b	2338 <dummy_done>
    44dc:	d503201f 	nop

00000000000044e0 <entry_55>:
    44e0:	14000001 	b	44e4 <entry_55+0x4>
    44e4:	14000001 	b	44e8 <entry_55+0x8>
    44e8:	14000001 	b	44ec <entry_55+0xc>
    44ec:	14000001 	b	44f0 <entry_55+0x10>
    44f0:	14000001 	b	44f4 <entry_55+0x14>
    44f4:	14000001 	b	44f8 <entry_55+0x18>
    44f8:	14000001 	b	44fc <entry_55+0x1c>
    44fc:	14000001 	b	4500 <entry_55+0x20>
    4500:	14000001 	b	4504 <entry_55+0x24>
    4504:	14000001 	b	4508 <entry_55+0x28>
    4508:	14000001 	b	450c <entry_55+0x2c>
    450c:	14000001 	b	4510 <entry_55+0x30>
    4510:	14000001 	b	4514 <entry_55+0x34>
    4514:	14000001 	b	4518 <entry_55+0x38>
    4518:	14000001 	b	451c <entry_55+0x3c>
    451c:	14000001 	b	4520 <entry_55+0x40>
    4520:	14000001 	b	4524 <entry_55+0x44>
    4524:	14000001 	b	4528 <entry_55+0x48>
    4528:	14000001 	b	452c <entry_55+0x4c>
    452c:	14000001 	b	4530 <entry_55+0x50>
    4530:	14000001 	b	4534 <entry_55+0x54>
    4534:	14000001 	b	4538 <entry_55+0x58>
    4538:	14000001 	b	453c <entry_55+0x5c>
    453c:	14000001 	b	4540 <entry_55+0x60>
    4540:	14000001 	b	4544 <entry_55+0x64>
    4544:	14000001 	b	4548 <entry_55+0x68>
    4548:	14000001 	b	454c <entry_55+0x6c>
    454c:	14000001 	b	4550 <entry_55+0x70>
    4550:	14000001 	b	4554 <entry_55+0x74>
    4554:	14000001 	b	4558 <entry_55+0x78>
    4558:	14000001 	b	455c <entry_55+0x7c>
    455c:	14000001 	b	4560 <entry_55+0x80>
    4560:	14000001 	b	4564 <entry_55+0x84>
    4564:	14000001 	b	4568 <entry_55+0x88>
    4568:	14000001 	b	456c <entry_55+0x8c>
    456c:	14000001 	b	4570 <entry_55+0x90>
    4570:	14000001 	b	4574 <entry_55+0x94>
    4574:	14000001 	b	4578 <entry_55+0x98>
    4578:	14000001 	b	457c <entry_55+0x9c>
    457c:	14000001 	b	4580 <entry_55+0xa0>
    4580:	14000001 	b	4584 <entry_55+0xa4>
    4584:	14000001 	b	4588 <entry_55+0xa8>
    4588:	14000001 	b	458c <entry_55+0xac>
    458c:	14000001 	b	4590 <entry_55+0xb0>
    4590:	14000001 	b	4594 <entry_55+0xb4>
    4594:	14000001 	b	4598 <entry_55+0xb8>
    4598:	14000001 	b	459c <entry_55+0xbc>
    459c:	14000001 	b	45a0 <entry_55+0xc0>
    45a0:	14000001 	b	45a4 <entry_55+0xc4>
    45a4:	14000001 	b	45a8 <entry_55+0xc8>
    45a8:	14000001 	b	45ac <entry_55+0xcc>
    45ac:	14000001 	b	45b0 <entry_55+0xd0>
    45b0:	14000001 	b	45b4 <entry_55+0xd4>
    45b4:	14000001 	b	45b8 <entry_55+0xd8>
    45b8:	14000001 	b	45bc <entry_55+0xdc>
    45bc:	17fff75f 	b	2338 <dummy_done>

00000000000045c0 <entry_56>:
    45c0:	14000001 	b	45c4 <entry_56+0x4>
    45c4:	14000001 	b	45c8 <entry_56+0x8>
    45c8:	14000001 	b	45cc <entry_56+0xc>
    45cc:	14000001 	b	45d0 <entry_56+0x10>
    45d0:	14000001 	b	45d4 <entry_56+0x14>
    45d4:	14000001 	b	45d8 <entry_56+0x18>
    45d8:	14000001 	b	45dc <entry_56+0x1c>
    45dc:	14000001 	b	45e0 <entry_56+0x20>
    45e0:	14000001 	b	45e4 <entry_56+0x24>
    45e4:	14000001 	b	45e8 <entry_56+0x28>
    45e8:	14000001 	b	45ec <entry_56+0x2c>
    45ec:	14000001 	b	45f0 <entry_56+0x30>
    45f0:	14000001 	b	45f4 <entry_56+0x34>
    45f4:	14000001 	b	45f8 <entry_56+0x38>
    45f8:	14000001 	b	45fc <entry_56+0x3c>
    45fc:	14000001 	b	4600 <entry_56+0x40>
    4600:	14000001 	b	4604 <entry_56+0x44>
    4604:	14000001 	b	4608 <entry_56+0x48>
    4608:	14000001 	b	460c <entry_56+0x4c>
    460c:	14000001 	b	4610 <entry_56+0x50>
    4610:	14000001 	b	4614 <entry_56+0x54>
    4614:	14000001 	b	4618 <entry_56+0x58>
    4618:	14000001 	b	461c <entry_56+0x5c>
    461c:	14000001 	b	4620 <entry_56+0x60>
    4620:	14000001 	b	4624 <entry_56+0x64>
    4624:	14000001 	b	4628 <entry_56+0x68>
    4628:	14000001 	b	462c <entry_56+0x6c>
    462c:	14000001 	b	4630 <entry_56+0x70>
    4630:	14000001 	b	4634 <entry_56+0x74>
    4634:	14000001 	b	4638 <entry_56+0x78>
    4638:	14000001 	b	463c <entry_56+0x7c>
    463c:	14000001 	b	4640 <entry_56+0x80>
    4640:	14000001 	b	4644 <entry_56+0x84>
    4644:	14000001 	b	4648 <entry_56+0x88>
    4648:	14000001 	b	464c <entry_56+0x8c>
    464c:	14000001 	b	4650 <entry_56+0x90>
    4650:	14000001 	b	4654 <entry_56+0x94>
    4654:	14000001 	b	4658 <entry_56+0x98>
    4658:	14000001 	b	465c <entry_56+0x9c>
    465c:	14000001 	b	4660 <entry_56+0xa0>
    4660:	14000001 	b	4664 <entry_56+0xa4>
    4664:	14000001 	b	4668 <entry_56+0xa8>
    4668:	14000001 	b	466c <entry_56+0xac>
    466c:	14000001 	b	4670 <entry_56+0xb0>
    4670:	14000001 	b	4674 <entry_56+0xb4>
    4674:	14000001 	b	4678 <entry_56+0xb8>
    4678:	14000001 	b	467c <entry_56+0xbc>
    467c:	14000001 	b	4680 <entry_56+0xc0>
    4680:	14000001 	b	4684 <entry_56+0xc4>
    4684:	14000001 	b	4688 <entry_56+0xc8>
    4688:	14000001 	b	468c <entry_56+0xcc>
    468c:	14000001 	b	4690 <entry_56+0xd0>
    4690:	14000001 	b	4694 <entry_56+0xd4>
    4694:	14000001 	b	4698 <entry_56+0xd8>
    4698:	14000001 	b	469c <entry_56+0xdc>
    469c:	14000001 	b	46a0 <entry_56+0xe0>
    46a0:	17fff726 	b	2338 <dummy_done>
    46a4:	d503201f 	nop
    46a8:	d503201f 	nop
    46ac:	d503201f 	nop

00000000000046b0 <entry_57>:
    46b0:	14000001 	b	46b4 <entry_57+0x4>
    46b4:	14000001 	b	46b8 <entry_57+0x8>
    46b8:	14000001 	b	46bc <entry_57+0xc>
    46bc:	14000001 	b	46c0 <entry_57+0x10>
    46c0:	14000001 	b	46c4 <entry_57+0x14>
    46c4:	14000001 	b	46c8 <entry_57+0x18>
    46c8:	14000001 	b	46cc <entry_57+0x1c>
    46cc:	14000001 	b	46d0 <entry_57+0x20>
    46d0:	14000001 	b	46d4 <entry_57+0x24>
    46d4:	14000001 	b	46d8 <entry_57+0x28>
    46d8:	14000001 	b	46dc <entry_57+0x2c>
    46dc:	14000001 	b	46e0 <entry_57+0x30>
    46e0:	14000001 	b	46e4 <entry_57+0x34>
    46e4:	14000001 	b	46e8 <entry_57+0x38>
    46e8:	14000001 	b	46ec <entry_57+0x3c>
    46ec:	14000001 	b	46f0 <entry_57+0x40>
    46f0:	14000001 	b	46f4 <entry_57+0x44>
    46f4:	14000001 	b	46f8 <entry_57+0x48>
    46f8:	14000001 	b	46fc <entry_57+0x4c>
    46fc:	14000001 	b	4700 <entry_57+0x50>
    4700:	14000001 	b	4704 <entry_57+0x54>
    4704:	14000001 	b	4708 <entry_57+0x58>
    4708:	14000001 	b	470c <entry_57+0x5c>
    470c:	14000001 	b	4710 <entry_57+0x60>
    4710:	14000001 	b	4714 <entry_57+0x64>
    4714:	14000001 	b	4718 <entry_57+0x68>
    4718:	14000001 	b	471c <entry_57+0x6c>
    471c:	14000001 	b	4720 <entry_57+0x70>
    4720:	14000001 	b	4724 <entry_57+0x74>
    4724:	14000001 	b	4728 <entry_57+0x78>
    4728:	14000001 	b	472c <entry_57+0x7c>
    472c:	14000001 	b	4730 <entry_57+0x80>
    4730:	14000001 	b	4734 <entry_57+0x84>
    4734:	14000001 	b	4738 <entry_57+0x88>
    4738:	14000001 	b	473c <entry_57+0x8c>
    473c:	14000001 	b	4740 <entry_57+0x90>
    4740:	14000001 	b	4744 <entry_57+0x94>
    4744:	14000001 	b	4748 <entry_57+0x98>
    4748:	14000001 	b	474c <entry_57+0x9c>
    474c:	14000001 	b	4750 <entry_57+0xa0>
    4750:	14000001 	b	4754 <entry_57+0xa4>
    4754:	14000001 	b	4758 <entry_57+0xa8>
    4758:	14000001 	b	475c <entry_57+0xac>
    475c:	14000001 	b	4760 <entry_57+0xb0>
    4760:	14000001 	b	4764 <entry_57+0xb4>
    4764:	14000001 	b	4768 <entry_57+0xb8>
    4768:	14000001 	b	476c <entry_57+0xbc>
    476c:	14000001 	b	4770 <entry_57+0xc0>
    4770:	14000001 	b	4774 <entry_57+0xc4>
    4774:	14000001 	b	4778 <entry_57+0xc8>
    4778:	14000001 	b	477c <entry_57+0xcc>
    477c:	14000001 	b	4780 <entry_57+0xd0>
    4780:	14000001 	b	4784 <entry_57+0xd4>
    4784:	14000001 	b	4788 <entry_57+0xd8>
    4788:	14000001 	b	478c <entry_57+0xdc>
    478c:	14000001 	b	4790 <entry_57+0xe0>
    4790:	14000001 	b	4794 <entry_57+0xe4>
    4794:	17fff6e9 	b	2338 <dummy_done>
    4798:	d503201f 	nop
    479c:	d503201f 	nop

00000000000047a0 <entry_58>:
    47a0:	14000001 	b	47a4 <entry_58+0x4>
    47a4:	14000001 	b	47a8 <entry_58+0x8>
    47a8:	14000001 	b	47ac <entry_58+0xc>
    47ac:	14000001 	b	47b0 <entry_58+0x10>
    47b0:	14000001 	b	47b4 <entry_58+0x14>
    47b4:	14000001 	b	47b8 <entry_58+0x18>
    47b8:	14000001 	b	47bc <entry_58+0x1c>
    47bc:	14000001 	b	47c0 <entry_58+0x20>
    47c0:	14000001 	b	47c4 <entry_58+0x24>
    47c4:	14000001 	b	47c8 <entry_58+0x28>
    47c8:	14000001 	b	47cc <entry_58+0x2c>
    47cc:	14000001 	b	47d0 <entry_58+0x30>
    47d0:	14000001 	b	47d4 <entry_58+0x34>
    47d4:	14000001 	b	47d8 <entry_58+0x38>
    47d8:	14000001 	b	47dc <entry_58+0x3c>
    47dc:	14000001 	b	47e0 <entry_58+0x40>
    47e0:	14000001 	b	47e4 <entry_58+0x44>
    47e4:	14000001 	b	47e8 <entry_58+0x48>
    47e8:	14000001 	b	47ec <entry_58+0x4c>
    47ec:	14000001 	b	47f0 <entry_58+0x50>
    47f0:	14000001 	b	47f4 <entry_58+0x54>
    47f4:	14000001 	b	47f8 <entry_58+0x58>
    47f8:	14000001 	b	47fc <entry_58+0x5c>
    47fc:	14000001 	b	4800 <entry_58+0x60>
    4800:	14000001 	b	4804 <entry_58+0x64>
    4804:	14000001 	b	4808 <entry_58+0x68>
    4808:	14000001 	b	480c <entry_58+0x6c>
    480c:	14000001 	b	4810 <entry_58+0x70>
    4810:	14000001 	b	4814 <entry_58+0x74>
    4814:	14000001 	b	4818 <entry_58+0x78>
    4818:	14000001 	b	481c <entry_58+0x7c>
    481c:	14000001 	b	4820 <entry_58+0x80>
    4820:	14000001 	b	4824 <entry_58+0x84>
    4824:	14000001 	b	4828 <entry_58+0x88>
    4828:	14000001 	b	482c <entry_58+0x8c>
    482c:	14000001 	b	4830 <entry_58+0x90>
    4830:	14000001 	b	4834 <entry_58+0x94>
    4834:	14000001 	b	4838 <entry_58+0x98>
    4838:	14000001 	b	483c <entry_58+0x9c>
    483c:	14000001 	b	4840 <entry_58+0xa0>
    4840:	14000001 	b	4844 <entry_58+0xa4>
    4844:	14000001 	b	4848 <entry_58+0xa8>
    4848:	14000001 	b	484c <entry_58+0xac>
    484c:	14000001 	b	4850 <entry_58+0xb0>
    4850:	14000001 	b	4854 <entry_58+0xb4>
    4854:	14000001 	b	4858 <entry_58+0xb8>
    4858:	14000001 	b	485c <entry_58+0xbc>
    485c:	14000001 	b	4860 <entry_58+0xc0>
    4860:	14000001 	b	4864 <entry_58+0xc4>
    4864:	14000001 	b	4868 <entry_58+0xc8>
    4868:	14000001 	b	486c <entry_58+0xcc>
    486c:	14000001 	b	4870 <entry_58+0xd0>
    4870:	14000001 	b	4874 <entry_58+0xd4>
    4874:	14000001 	b	4878 <entry_58+0xd8>
    4878:	14000001 	b	487c <entry_58+0xdc>
    487c:	14000001 	b	4880 <entry_58+0xe0>
    4880:	14000001 	b	4884 <entry_58+0xe4>
    4884:	14000001 	b	4888 <entry_58+0xe8>
    4888:	17fff6ac 	b	2338 <dummy_done>
    488c:	d503201f 	nop

0000000000004890 <entry_59>:
    4890:	14000001 	b	4894 <entry_59+0x4>
    4894:	14000001 	b	4898 <entry_59+0x8>
    4898:	14000001 	b	489c <entry_59+0xc>
    489c:	14000001 	b	48a0 <entry_59+0x10>
    48a0:	14000001 	b	48a4 <entry_59+0x14>
    48a4:	14000001 	b	48a8 <entry_59+0x18>
    48a8:	14000001 	b	48ac <entry_59+0x1c>
    48ac:	14000001 	b	48b0 <entry_59+0x20>
    48b0:	14000001 	b	48b4 <entry_59+0x24>
    48b4:	14000001 	b	48b8 <entry_59+0x28>
    48b8:	14000001 	b	48bc <entry_59+0x2c>
    48bc:	14000001 	b	48c0 <entry_59+0x30>
    48c0:	14000001 	b	48c4 <entry_59+0x34>
    48c4:	14000001 	b	48c8 <entry_59+0x38>
    48c8:	14000001 	b	48cc <entry_59+0x3c>
    48cc:	14000001 	b	48d0 <entry_59+0x40>
    48d0:	14000001 	b	48d4 <entry_59+0x44>
    48d4:	14000001 	b	48d8 <entry_59+0x48>
    48d8:	14000001 	b	48dc <entry_59+0x4c>
    48dc:	14000001 	b	48e0 <entry_59+0x50>
    48e0:	14000001 	b	48e4 <entry_59+0x54>
    48e4:	14000001 	b	48e8 <entry_59+0x58>
    48e8:	14000001 	b	48ec <entry_59+0x5c>
    48ec:	14000001 	b	48f0 <entry_59+0x60>
    48f0:	14000001 	b	48f4 <entry_59+0x64>
    48f4:	14000001 	b	48f8 <entry_59+0x68>
    48f8:	14000001 	b	48fc <entry_59+0x6c>
    48fc:	14000001 	b	4900 <entry_59+0x70>
    4900:	14000001 	b	4904 <entry_59+0x74>
    4904:	14000001 	b	4908 <entry_59+0x78>
    4908:	14000001 	b	490c <entry_59+0x7c>
    490c:	14000001 	b	4910 <entry_59+0x80>
    4910:	14000001 	b	4914 <entry_59+0x84>
    4914:	14000001 	b	4918 <entry_59+0x88>
    4918:	14000001 	b	491c <entry_59+0x8c>
    491c:	14000001 	b	4920 <entry_59+0x90>
    4920:	14000001 	b	4924 <entry_59+0x94>
    4924:	14000001 	b	4928 <entry_59+0x98>
    4928:	14000001 	b	492c <entry_59+0x9c>
    492c:	14000001 	b	4930 <entry_59+0xa0>
    4930:	14000001 	b	4934 <entry_59+0xa4>
    4934:	14000001 	b	4938 <entry_59+0xa8>
    4938:	14000001 	b	493c <entry_59+0xac>
    493c:	14000001 	b	4940 <entry_59+0xb0>
    4940:	14000001 	b	4944 <entry_59+0xb4>
    4944:	14000001 	b	4948 <entry_59+0xb8>
    4948:	14000001 	b	494c <entry_59+0xbc>
    494c:	14000001 	b	4950 <entry_59+0xc0>
    4950:	14000001 	b	4954 <entry_59+0xc4>
    4954:	14000001 	b	4958 <entry_59+0xc8>
    4958:	14000001 	b	495c <entry_59+0xcc>
    495c:	14000001 	b	4960 <entry_59+0xd0>
    4960:	14000001 	b	4964 <entry_59+0xd4>
    4964:	14000001 	b	4968 <entry_59+0xd8>
    4968:	14000001 	b	496c <entry_59+0xdc>
    496c:	14000001 	b	4970 <entry_59+0xe0>
    4970:	14000001 	b	4974 <entry_59+0xe4>
    4974:	14000001 	b	4978 <entry_59+0xe8>
    4978:	14000001 	b	497c <entry_59+0xec>
    497c:	17fff66f 	b	2338 <dummy_done>

0000000000004980 <entry_60>:
    4980:	14000001 	b	4984 <entry_60+0x4>
    4984:	14000001 	b	4988 <entry_60+0x8>
    4988:	14000001 	b	498c <entry_60+0xc>
    498c:	14000001 	b	4990 <entry_60+0x10>
    4990:	14000001 	b	4994 <entry_60+0x14>
    4994:	14000001 	b	4998 <entry_60+0x18>
    4998:	14000001 	b	499c <entry_60+0x1c>
    499c:	14000001 	b	49a0 <entry_60+0x20>
    49a0:	14000001 	b	49a4 <entry_60+0x24>
    49a4:	14000001 	b	49a8 <entry_60+0x28>
    49a8:	14000001 	b	49ac <entry_60+0x2c>
    49ac:	14000001 	b	49b0 <entry_60+0x30>
    49b0:	14000001 	b	49b4 <entry_60+0x34>
    49b4:	14000001 	b	49b8 <entry_60+0x38>
    49b8:	14000001 	b	49bc <entry_60+0x3c>
    49bc:	14000001 	b	49c0 <entry_60+0x40>
    49c0:	14000001 	b	49c4 <entry_60+0x44>
    49c4:	14000001 	b	49c8 <entry_60+0x48>
    49c8:	14000001 	b	49cc <entry_60+0x4c>
    49cc:	14000001 	b	49d0 <entry_60+0x50>
    49d0:	14000001 	b	49d4 <entry_60+0x54>
    49d4:	14000001 	b	49d8 <entry_60+0x58>
    49d8:	14000001 	b	49dc <entry_60+0x5c>
    49dc:	14000001 	b	49e0 <entry_60+0x60>
    49e0:	14000001 	b	49e4 <entry_60+0x64>
    49e4:	14000001 	b	49e8 <entry_60+0x68>
    49e8:	14000001 	b	49ec <entry_60+0x6c>
    49ec:	14000001 	b	49f0 <entry_60+0x70>
    49f0:	14000001 	b	49f4 <entry_60+0x74>
    49f4:	14000001 	b	49f8 <entry_60+0x78>
    49f8:	14000001 	b	49fc <entry_60+0x7c>
    49fc:	14000001 	b	4a00 <entry_60+0x80>
    4a00:	14000001 	b	4a04 <entry_60+0x84>
    4a04:	14000001 	b	4a08 <entry_60+0x88>
    4a08:	14000001 	b	4a0c <entry_60+0x8c>
    4a0c:	14000001 	b	4a10 <entry_60+0x90>
    4a10:	14000001 	b	4a14 <entry_60+0x94>
    4a14:	14000001 	b	4a18 <entry_60+0x98>
    4a18:	14000001 	b	4a1c <entry_60+0x9c>
    4a1c:	14000001 	b	4a20 <entry_60+0xa0>
    4a20:	14000001 	b	4a24 <entry_60+0xa4>
    4a24:	14000001 	b	4a28 <entry_60+0xa8>
    4a28:	14000001 	b	4a2c <entry_60+0xac>
    4a2c:	14000001 	b	4a30 <entry_60+0xb0>
    4a30:	14000001 	b	4a34 <entry_60+0xb4>
    4a34:	14000001 	b	4a38 <entry_60+0xb8>
    4a38:	14000001 	b	4a3c <entry_60+0xbc>
    4a3c:	14000001 	b	4a40 <entry_60+0xc0>
    4a40:	14000001 	b	4a44 <entry_60+0xc4>
    4a44:	14000001 	b	4a48 <entry_60+0xc8>
    4a48:	14000001 	b	4a4c <entry_60+0xcc>
    4a4c:	14000001 	b	4a50 <entry_60+0xd0>
    4a50:	14000001 	b	4a54 <entry_60+0xd4>
    4a54:	14000001 	b	4a58 <entry_60+0xd8>
    4a58:	14000001 	b	4a5c <entry_60+0xdc>
    4a5c:	14000001 	b	4a60 <entry_60+0xe0>
    4a60:	14000001 	b	4a64 <entry_60+0xe4>
    4a64:	14000001 	b	4a68 <entry_60+0xe8>
    4a68:	14000001 	b	4a6c <entry_60+0xec>
    4a6c:	14000001 	b	4a70 <entry_60+0xf0>
    4a70:	17fff632 	b	2338 <dummy_done>
    4a74:	d503201f 	nop
    4a78:	d503201f 	nop
    4a7c:	d503201f 	nop

0000000000004a80 <entry_61>:
    4a80:	14000001 	b	4a84 <entry_61+0x4>
    4a84:	14000001 	b	4a88 <entry_61+0x8>
    4a88:	14000001 	b	4a8c <entry_61+0xc>
    4a8c:	14000001 	b	4a90 <entry_61+0x10>
    4a90:	14000001 	b	4a94 <entry_61+0x14>
    4a94:	14000001 	b	4a98 <entry_61+0x18>
    4a98:	14000001 	b	4a9c <entry_61+0x1c>
    4a9c:	14000001 	b	4aa0 <entry_61+0x20>
    4aa0:	14000001 	b	4aa4 <entry_61+0x24>
    4aa4:	14000001 	b	4aa8 <entry_61+0x28>
    4aa8:	14000001 	b	4aac <entry_61+0x2c>
    4aac:	14000001 	b	4ab0 <entry_61+0x30>
    4ab0:	14000001 	b	4ab4 <entry_61+0x34>
    4ab4:	14000001 	b	4ab8 <entry_61+0x38>
    4ab8:	14000001 	b	4abc <entry_61+0x3c>
    4abc:	14000001 	b	4ac0 <entry_61+0x40>
    4ac0:	14000001 	b	4ac4 <entry_61+0x44>
    4ac4:	14000001 	b	4ac8 <entry_61+0x48>
    4ac8:	14000001 	b	4acc <entry_61+0x4c>
    4acc:	14000001 	b	4ad0 <entry_61+0x50>
    4ad0:	14000001 	b	4ad4 <entry_61+0x54>
    4ad4:	14000001 	b	4ad8 <entry_61+0x58>
    4ad8:	14000001 	b	4adc <entry_61+0x5c>
    4adc:	14000001 	b	4ae0 <entry_61+0x60>
    4ae0:	14000001 	b	4ae4 <entry_61+0x64>
    4ae4:	14000001 	b	4ae8 <entry_61+0x68>
    4ae8:	14000001 	b	4aec <entry_61+0x6c>
    4aec:	14000001 	b	4af0 <entry_61+0x70>
    4af0:	14000001 	b	4af4 <entry_61+0x74>
    4af4:	14000001 	b	4af8 <entry_61+0x78>
    4af8:	14000001 	b	4afc <entry_61+0x7c>
    4afc:	14000001 	b	4b00 <entry_61+0x80>
    4b00:	14000001 	b	4b04 <entry_61+0x84>
    4b04:	14000001 	b	4b08 <entry_61+0x88>
    4b08:	14000001 	b	4b0c <entry_61+0x8c>
    4b0c:	14000001 	b	4b10 <entry_61+0x90>
    4b10:	14000001 	b	4b14 <entry_61+0x94>
    4b14:	14000001 	b	4b18 <entry_61+0x98>
    4b18:	14000001 	b	4b1c <entry_61+0x9c>
    4b1c:	14000001 	b	4b20 <entry_61+0xa0>
    4b20:	14000001 	b	4b24 <entry_61+0xa4>
    4b24:	14000001 	b	4b28 <entry_61+0xa8>
    4b28:	14000001 	b	4b2c <entry_61+0xac>
    4b2c:	14000001 	b	4b30 <entry_61+0xb0>
    4b30:	14000001 	b	4b34 <entry_61+0xb4>
    4b34:	14000001 	b	4b38 <entry_61+0xb8>
    4b38:	14000001 	b	4b3c <entry_61+0xbc>
    4b3c:	14000001 	b	4b40 <entry_61+0xc0>
    4b40:	14000001 	b	4b44 <entry_61+0xc4>
    4b44:	14000001 	b	4b48 <entry_61+0xc8>
    4b48:	14000001 	b	4b4c <entry_61+0xcc>
    4b4c:	14000001 	b	4b50 <entry_61+0xd0>
    4b50:	14000001 	b	4b54 <entry_61+0xd4>
    4b54:	14000001 	b	4b58 <entry_61+0xd8>
    4b58:	14000001 	b	4b5c <entry_61+0xdc>
    4b5c:	14000001 	b	4b60 <entry_61+0xe0>
    4b60:	14000001 	b	4b64 <entry_61+0xe4>
    4b64:	14000001 	b	4b68 <entry_61+0xe8>
    4b68:	14000001 	b	4b6c <entry_61+0xec>
    4b6c:	14000001 	b	4b70 <entry_61+0xf0>
    4b70:	14000001 	b	4b74 <entry_61+0xf4>
    4b74:	17fff5f1 	b	2338 <dummy_done>
    4b78:	d503201f 	nop
    4b7c:	d503201f 	nop

0000000000004b80 <entry_62>:
    4b80:	14000001 	b	4b84 <entry_62+0x4>
    4b84:	14000001 	b	4b88 <entry_62+0x8>
    4b88:	14000001 	b	4b8c <entry_62+0xc>
    4b8c:	14000001 	b	4b90 <entry_62+0x10>
    4b90:	14000001 	b	4b94 <entry_62+0x14>
    4b94:	14000001 	b	4b98 <entry_62+0x18>
    4b98:	14000001 	b	4b9c <entry_62+0x1c>
    4b9c:	14000001 	b	4ba0 <entry_62+0x20>
    4ba0:	14000001 	b	4ba4 <entry_62+0x24>
    4ba4:	14000001 	b	4ba8 <entry_62+0x28>
    4ba8:	14000001 	b	4bac <entry_62+0x2c>
    4bac:	14000001 	b	4bb0 <entry_62+0x30>
    4bb0:	14000001 	b	4bb4 <entry_62+0x34>
    4bb4:	14000001 	b	4bb8 <entry_62+0x38>
    4bb8:	14000001 	b	4bbc <entry_62+0x3c>
    4bbc:	14000001 	b	4bc0 <entry_62+0x40>
    4bc0:	14000001 	b	4bc4 <entry_62+0x44>
    4bc4:	14000001 	b	4bc8 <entry_62+0x48>
    4bc8:	14000001 	b	4bcc <entry_62+0x4c>
    4bcc:	14000001 	b	4bd0 <entry_62+0x50>
    4bd0:	14000001 	b	4bd4 <entry_62+0x54>
    4bd4:	14000001 	b	4bd8 <entry_62+0x58>
    4bd8:	14000001 	b	4bdc <entry_62+0x5c>
    4bdc:	14000001 	b	4be0 <entry_62+0x60>
    4be0:	14000001 	b	4be4 <entry_62+0x64>
    4be4:	14000001 	b	4be8 <entry_62+0x68>
    4be8:	14000001 	b	4bec <entry_62+0x6c>
    4bec:	14000001 	b	4bf0 <entry_62+0x70>
    4bf0:	14000001 	b	4bf4 <entry_62+0x74>
    4bf4:	14000001 	b	4bf8 <entry_62+0x78>
    4bf8:	14000001 	b	4bfc <entry_62+0x7c>
    4bfc:	14000001 	b	4c00 <entry_62+0x80>
    4c00:	14000001 	b	4c04 <entry_62+0x84>
    4c04:	14000001 	b	4c08 <entry_62+0x88>
    4c08:	14000001 	b	4c0c <entry_62+0x8c>
    4c0c:	14000001 	b	4c10 <entry_62+0x90>
    4c10:	14000001 	b	4c14 <entry_62+0x94>
    4c14:	14000001 	b	4c18 <entry_62+0x98>
    4c18:	14000001 	b	4c1c <entry_62+0x9c>
    4c1c:	14000001 	b	4c20 <entry_62+0xa0>
    4c20:	14000001 	b	4c24 <entry_62+0xa4>
    4c24:	14000001 	b	4c28 <entry_62+0xa8>
    4c28:	14000001 	b	4c2c <entry_62+0xac>
    4c2c:	14000001 	b	4c30 <entry_62+0xb0>
    4c30:	14000001 	b	4c34 <entry_62+0xb4>
    4c34:	14000001 	b	4c38 <entry_62+0xb8>
    4c38:	14000001 	b	4c3c <entry_62+0xbc>
    4c3c:	14000001 	b	4c40 <entry_62+0xc0>
    4c40:	14000001 	b	4c44 <entry_62+0xc4>
    4c44:	14000001 	b	4c48 <entry_62+0xc8>
    4c48:	14000001 	b	4c4c <entry_62+0xcc>
    4c4c:	14000001 	b	4c50 <entry_62+0xd0>
    4c50:	14000001 	b	4c54 <entry_62+0xd4>
    4c54:	14000001 	b	4c58 <entry_62+0xd8>
    4c58:	14000001 	b	4c5c <entry_62+0xdc>
    4c5c:	14000001 	b	4c60 <entry_62+0xe0>
    4c60:	14000001 	b	4c64 <entry_62+0xe4>
    4c64:	14000001 	b	4c68 <entry_62+0xe8>
    4c68:	14000001 	b	4c6c <entry_62+0xec>
    4c6c:	14000001 	b	4c70 <entry_62+0xf0>
    4c70:	14000001 	b	4c74 <entry_62+0xf4>
    4c74:	14000001 	b	4c78 <entry_62+0xf8>
    4c78:	17fff5b0 	b	2338 <dummy_done>
    4c7c:	d503201f 	nop

0000000000004c80 <entry_63>:
    4c80:	14000001 	b	4c84 <entry_63+0x4>
    4c84:	14000001 	b	4c88 <entry_63+0x8>
    4c88:	14000001 	b	4c8c <entry_63+0xc>
    4c8c:	14000001 	b	4c90 <entry_63+0x10>
    4c90:	14000001 	b	4c94 <entry_63+0x14>
    4c94:	14000001 	b	4c98 <entry_63+0x18>
    4c98:	14000001 	b	4c9c <entry_63+0x1c>
    4c9c:	14000001 	b	4ca0 <entry_63+0x20>
    4ca0:	14000001 	b	4ca4 <entry_63+0x24>
    4ca4:	14000001 	b	4ca8 <entry_63+0x28>
    4ca8:	14000001 	b	4cac <entry_63+0x2c>
    4cac:	14000001 	b	4cb0 <entry_63+0x30>
    4cb0:	14000001 	b	4cb4 <entry_63+0x34>
    4cb4:	14000001 	b	4cb8 <entry_63+0x38>
    4cb8:	14000001 	b	4cbc <entry_63+0x3c>
    4cbc:	14000001 	b	4cc0 <entry_63+0x40>
    4cc0:	14000001 	b	4cc4 <entry_63+0x44>
    4cc4:	14000001 	b	4cc8 <entry_63+0x48>
    4cc8:	14000001 	b	4ccc <entry_63+0x4c>
    4ccc:	14000001 	b	4cd0 <entry_63+0x50>
    4cd0:	14000001 	b	4cd4 <entry_63+0x54>
    4cd4:	14000001 	b	4cd8 <entry_63+0x58>
    4cd8:	14000001 	b	4cdc <entry_63+0x5c>
    4cdc:	14000001 	b	4ce0 <entry_63+0x60>
    4ce0:	14000001 	b	4ce4 <entry_63+0x64>
    4ce4:	14000001 	b	4ce8 <entry_63+0x68>
    4ce8:	14000001 	b	4cec <entry_63+0x6c>
    4cec:	14000001 	b	4cf0 <entry_63+0x70>
    4cf0:	14000001 	b	4cf4 <entry_63+0x74>
    4cf4:	14000001 	b	4cf8 <entry_63+0x78>
    4cf8:	14000001 	b	4cfc <entry_63+0x7c>
    4cfc:	14000001 	b	4d00 <entry_63+0x80>
    4d00:	14000001 	b	4d04 <entry_63+0x84>
    4d04:	14000001 	b	4d08 <entry_63+0x88>
    4d08:	14000001 	b	4d0c <entry_63+0x8c>
    4d0c:	14000001 	b	4d10 <entry_63+0x90>
    4d10:	14000001 	b	4d14 <entry_63+0x94>
    4d14:	14000001 	b	4d18 <entry_63+0x98>
    4d18:	14000001 	b	4d1c <entry_63+0x9c>
    4d1c:	14000001 	b	4d20 <entry_63+0xa0>
    4d20:	14000001 	b	4d24 <entry_63+0xa4>
    4d24:	14000001 	b	4d28 <entry_63+0xa8>
    4d28:	14000001 	b	4d2c <entry_63+0xac>
    4d2c:	14000001 	b	4d30 <entry_63+0xb0>
    4d30:	14000001 	b	4d34 <entry_63+0xb4>
    4d34:	14000001 	b	4d38 <entry_63+0xb8>
    4d38:	14000001 	b	4d3c <entry_63+0xbc>
    4d3c:	14000001 	b	4d40 <entry_63+0xc0>
    4d40:	14000001 	b	4d44 <entry_63+0xc4>
    4d44:	14000001 	b	4d48 <entry_63+0xc8>
    4d48:	14000001 	b	4d4c <entry_63+0xcc>
    4d4c:	14000001 	b	4d50 <entry_63+0xd0>
    4d50:	14000001 	b	4d54 <entry_63+0xd4>
    4d54:	14000001 	b	4d58 <entry_63+0xd8>
    4d58:	14000001 	b	4d5c <entry_63+0xdc>
    4d5c:	14000001 	b	4d60 <entry_63+0xe0>
    4d60:	14000001 	b	4d64 <entry_63+0xe4>
    4d64:	14000001 	b	4d68 <entry_63+0xe8>
    4d68:	14000001 	b	4d6c <entry_63+0xec>
    4d6c:	14000001 	b	4d70 <entry_63+0xf0>
    4d70:	14000001 	b	4d74 <entry_63+0xf4>
    4d74:	14000001 	b	4d78 <entry_63+0xf8>
    4d78:	14000001 	b	4d7c <entry_63+0xfc>
    4d7c:	17fff56f 	b	2338 <dummy_done>

0000000000004d80 <entry_64>:
    4d80:	14000001 	b	4d84 <entry_64+0x4>
    4d84:	14000001 	b	4d88 <entry_64+0x8>
    4d88:	14000001 	b	4d8c <entry_64+0xc>
    4d8c:	14000001 	b	4d90 <entry_64+0x10>
    4d90:	14000001 	b	4d94 <entry_64+0x14>
    4d94:	14000001 	b	4d98 <entry_64+0x18>
    4d98:	14000001 	b	4d9c <entry_64+0x1c>
    4d9c:	14000001 	b	4da0 <entry_64+0x20>
    4da0:	14000001 	b	4da4 <entry_64+0x24>
    4da4:	14000001 	b	4da8 <entry_64+0x28>
    4da8:	14000001 	b	4dac <entry_64+0x2c>
    4dac:	14000001 	b	4db0 <entry_64+0x30>
    4db0:	14000001 	b	4db4 <entry_64+0x34>
    4db4:	14000001 	b	4db8 <entry_64+0x38>
    4db8:	14000001 	b	4dbc <entry_64+0x3c>
    4dbc:	14000001 	b	4dc0 <entry_64+0x40>
    4dc0:	14000001 	b	4dc4 <entry_64+0x44>
    4dc4:	14000001 	b	4dc8 <entry_64+0x48>
    4dc8:	14000001 	b	4dcc <entry_64+0x4c>
    4dcc:	14000001 	b	4dd0 <entry_64+0x50>
    4dd0:	14000001 	b	4dd4 <entry_64+0x54>
    4dd4:	14000001 	b	4dd8 <entry_64+0x58>
    4dd8:	14000001 	b	4ddc <entry_64+0x5c>
    4ddc:	14000001 	b	4de0 <entry_64+0x60>
    4de0:	14000001 	b	4de4 <entry_64+0x64>
    4de4:	14000001 	b	4de8 <entry_64+0x68>
    4de8:	14000001 	b	4dec <entry_64+0x6c>
    4dec:	14000001 	b	4df0 <entry_64+0x70>
    4df0:	14000001 	b	4df4 <entry_64+0x74>
    4df4:	14000001 	b	4df8 <entry_64+0x78>
    4df8:	14000001 	b	4dfc <entry_64+0x7c>
    4dfc:	14000001 	b	4e00 <entry_64+0x80>
    4e00:	14000001 	b	4e04 <entry_64+0x84>
    4e04:	14000001 	b	4e08 <entry_64+0x88>
    4e08:	14000001 	b	4e0c <entry_64+0x8c>
    4e0c:	14000001 	b	4e10 <entry_64+0x90>
    4e10:	14000001 	b	4e14 <entry_64+0x94>
    4e14:	14000001 	b	4e18 <entry_64+0x98>
    4e18:	14000001 	b	4e1c <entry_64+0x9c>
    4e1c:	14000001 	b	4e20 <entry_64+0xa0>
    4e20:	14000001 	b	4e24 <entry_64+0xa4>
    4e24:	14000001 	b	4e28 <entry_64+0xa8>
    4e28:	14000001 	b	4e2c <entry_64+0xac>
    4e2c:	14000001 	b	4e30 <entry_64+0xb0>
    4e30:	14000001 	b	4e34 <entry_64+0xb4>
    4e34:	14000001 	b	4e38 <entry_64+0xb8>
    4e38:	14000001 	b	4e3c <entry_64+0xbc>
    4e3c:	14000001 	b	4e40 <entry_64+0xc0>
    4e40:	14000001 	b	4e44 <entry_64+0xc4>
    4e44:	14000001 	b	4e48 <entry_64+0xc8>
    4e48:	14000001 	b	4e4c <entry_64+0xcc>
    4e4c:	14000001 	b	4e50 <entry_64+0xd0>
    4e50:	14000001 	b	4e54 <entry_64+0xd4>
    4e54:	14000001 	b	4e58 <entry_64+0xd8>
    4e58:	14000001 	b	4e5c <entry_64+0xdc>
    4e5c:	14000001 	b	4e60 <entry_64+0xe0>
    4e60:	14000001 	b	4e64 <entry_64+0xe4>
    4e64:	14000001 	b	4e68 <entry_64+0xe8>
    4e68:	14000001 	b	4e6c <entry_64+0xec>
    4e6c:	14000001 	b	4e70 <entry_64+0xf0>
    4e70:	14000001 	b	4e74 <entry_64+0xf4>
    4e74:	14000001 	b	4e78 <entry_64+0xf8>
    4e78:	14000001 	b	4e7c <entry_64+0xfc>
    4e7c:	14000001 	b	4e80 <entry_64+0x100>
    4e80:	17fff52e 	b	2338 <dummy_done>
    4e84:	d503201f 	nop
    4e88:	d503201f 	nop
    4e8c:	d503201f 	nop

0000000000004e90 <entry_65>:
    4e90:	14000001 	b	4e94 <entry_65+0x4>
    4e94:	14000001 	b	4e98 <entry_65+0x8>
    4e98:	14000001 	b	4e9c <entry_65+0xc>
    4e9c:	14000001 	b	4ea0 <entry_65+0x10>
    4ea0:	14000001 	b	4ea4 <entry_65+0x14>
    4ea4:	14000001 	b	4ea8 <entry_65+0x18>
    4ea8:	14000001 	b	4eac <entry_65+0x1c>
    4eac:	14000001 	b	4eb0 <entry_65+0x20>
    4eb0:	14000001 	b	4eb4 <entry_65+0x24>
    4eb4:	14000001 	b	4eb8 <entry_65+0x28>
    4eb8:	14000001 	b	4ebc <entry_65+0x2c>
    4ebc:	14000001 	b	4ec0 <entry_65+0x30>
    4ec0:	14000001 	b	4ec4 <entry_65+0x34>
    4ec4:	14000001 	b	4ec8 <entry_65+0x38>
    4ec8:	14000001 	b	4ecc <entry_65+0x3c>
    4ecc:	14000001 	b	4ed0 <entry_65+0x40>
    4ed0:	14000001 	b	4ed4 <entry_65+0x44>
    4ed4:	14000001 	b	4ed8 <entry_65+0x48>
    4ed8:	14000001 	b	4edc <entry_65+0x4c>
    4edc:	14000001 	b	4ee0 <entry_65+0x50>
    4ee0:	14000001 	b	4ee4 <entry_65+0x54>
    4ee4:	14000001 	b	4ee8 <entry_65+0x58>
    4ee8:	14000001 	b	4eec <entry_65+0x5c>
    4eec:	14000001 	b	4ef0 <entry_65+0x60>
    4ef0:	14000001 	b	4ef4 <entry_65+0x64>
    4ef4:	14000001 	b	4ef8 <entry_65+0x68>
    4ef8:	14000001 	b	4efc <entry_65+0x6c>
    4efc:	14000001 	b	4f00 <entry_65+0x70>
    4f00:	14000001 	b	4f04 <entry_65+0x74>
    4f04:	14000001 	b	4f08 <entry_65+0x78>
    4f08:	14000001 	b	4f0c <entry_65+0x7c>
    4f0c:	14000001 	b	4f10 <entry_65+0x80>
    4f10:	14000001 	b	4f14 <entry_65+0x84>
    4f14:	14000001 	b	4f18 <entry_65+0x88>
    4f18:	14000001 	b	4f1c <entry_65+0x8c>
    4f1c:	14000001 	b	4f20 <entry_65+0x90>
    4f20:	14000001 	b	4f24 <entry_65+0x94>
    4f24:	14000001 	b	4f28 <entry_65+0x98>
    4f28:	14000001 	b	4f2c <entry_65+0x9c>
    4f2c:	14000001 	b	4f30 <entry_65+0xa0>
    4f30:	14000001 	b	4f34 <entry_65+0xa4>
    4f34:	14000001 	b	4f38 <entry_65+0xa8>
    4f38:	14000001 	b	4f3c <entry_65+0xac>
    4f3c:	14000001 	b	4f40 <entry_65+0xb0>
    4f40:	14000001 	b	4f44 <entry_65+0xb4>
    4f44:	14000001 	b	4f48 <entry_65+0xb8>
    4f48:	14000001 	b	4f4c <entry_65+0xbc>
    4f4c:	14000001 	b	4f50 <entry_65+0xc0>
    4f50:	14000001 	b	4f54 <entry_65+0xc4>
    4f54:	14000001 	b	4f58 <entry_65+0xc8>
    4f58:	14000001 	b	4f5c <entry_65+0xcc>
    4f5c:	14000001 	b	4f60 <entry_65+0xd0>
    4f60:	14000001 	b	4f64 <entry_65+0xd4>
    4f64:	14000001 	b	4f68 <entry_65+0xd8>
    4f68:	14000001 	b	4f6c <entry_65+0xdc>
    4f6c:	14000001 	b	4f70 <entry_65+0xe0>
    4f70:	14000001 	b	4f74 <entry_65+0xe4>
    4f74:	14000001 	b	4f78 <entry_65+0xe8>
    4f78:	14000001 	b	4f7c <entry_65+0xec>
    4f7c:	14000001 	b	4f80 <entry_65+0xf0>
    4f80:	14000001 	b	4f84 <entry_65+0xf4>
    4f84:	14000001 	b	4f88 <entry_65+0xf8>
    4f88:	14000001 	b	4f8c <entry_65+0xfc>
    4f8c:	14000001 	b	4f90 <entry_65+0x100>
    4f90:	14000001 	b	4f94 <entry_65+0x104>
    4f94:	17fff4e9 	b	2338 <dummy_done>
    4f98:	d503201f 	nop
    4f9c:	d503201f 	nop

0000000000004fa0 <entry_66>:
    4fa0:	14000001 	b	4fa4 <entry_66+0x4>
    4fa4:	14000001 	b	4fa8 <entry_66+0x8>
    4fa8:	14000001 	b	4fac <entry_66+0xc>
    4fac:	14000001 	b	4fb0 <entry_66+0x10>
    4fb0:	14000001 	b	4fb4 <entry_66+0x14>
    4fb4:	14000001 	b	4fb8 <entry_66+0x18>
    4fb8:	14000001 	b	4fbc <entry_66+0x1c>
    4fbc:	14000001 	b	4fc0 <entry_66+0x20>
    4fc0:	14000001 	b	4fc4 <entry_66+0x24>
    4fc4:	14000001 	b	4fc8 <entry_66+0x28>
    4fc8:	14000001 	b	4fcc <entry_66+0x2c>
    4fcc:	14000001 	b	4fd0 <entry_66+0x30>
    4fd0:	14000001 	b	4fd4 <entry_66+0x34>
    4fd4:	14000001 	b	4fd8 <entry_66+0x38>
    4fd8:	14000001 	b	4fdc <entry_66+0x3c>
    4fdc:	14000001 	b	4fe0 <entry_66+0x40>
    4fe0:	14000001 	b	4fe4 <entry_66+0x44>
    4fe4:	14000001 	b	4fe8 <entry_66+0x48>
    4fe8:	14000001 	b	4fec <entry_66+0x4c>
    4fec:	14000001 	b	4ff0 <entry_66+0x50>
    4ff0:	14000001 	b	4ff4 <entry_66+0x54>
    4ff4:	14000001 	b	4ff8 <entry_66+0x58>
    4ff8:	14000001 	b	4ffc <entry_66+0x5c>
    4ffc:	14000001 	b	5000 <entry_66+0x60>
    5000:	14000001 	b	5004 <entry_66+0x64>
    5004:	14000001 	b	5008 <entry_66+0x68>
    5008:	14000001 	b	500c <entry_66+0x6c>
    500c:	14000001 	b	5010 <entry_66+0x70>
    5010:	14000001 	b	5014 <entry_66+0x74>
    5014:	14000001 	b	5018 <entry_66+0x78>
    5018:	14000001 	b	501c <entry_66+0x7c>
    501c:	14000001 	b	5020 <entry_66+0x80>
    5020:	14000001 	b	5024 <entry_66+0x84>
    5024:	14000001 	b	5028 <entry_66+0x88>
    5028:	14000001 	b	502c <entry_66+0x8c>
    502c:	14000001 	b	5030 <entry_66+0x90>
    5030:	14000001 	b	5034 <entry_66+0x94>
    5034:	14000001 	b	5038 <entry_66+0x98>
    5038:	14000001 	b	503c <entry_66+0x9c>
    503c:	14000001 	b	5040 <entry_66+0xa0>
    5040:	14000001 	b	5044 <entry_66+0xa4>
    5044:	14000001 	b	5048 <entry_66+0xa8>
    5048:	14000001 	b	504c <entry_66+0xac>
    504c:	14000001 	b	5050 <entry_66+0xb0>
    5050:	14000001 	b	5054 <entry_66+0xb4>
    5054:	14000001 	b	5058 <entry_66+0xb8>
    5058:	14000001 	b	505c <entry_66+0xbc>
    505c:	14000001 	b	5060 <entry_66+0xc0>
    5060:	14000001 	b	5064 <entry_66+0xc4>
    5064:	14000001 	b	5068 <entry_66+0xc8>
    5068:	14000001 	b	506c <entry_66+0xcc>
    506c:	14000001 	b	5070 <entry_66+0xd0>
    5070:	14000001 	b	5074 <entry_66+0xd4>
    5074:	14000001 	b	5078 <entry_66+0xd8>
    5078:	14000001 	b	507c <entry_66+0xdc>
    507c:	14000001 	b	5080 <entry_66+0xe0>
    5080:	14000001 	b	5084 <entry_66+0xe4>
    5084:	14000001 	b	5088 <entry_66+0xe8>
    5088:	14000001 	b	508c <entry_66+0xec>
    508c:	14000001 	b	5090 <entry_66+0xf0>
    5090:	14000001 	b	5094 <entry_66+0xf4>
    5094:	14000001 	b	5098 <entry_66+0xf8>
    5098:	14000001 	b	509c <entry_66+0xfc>
    509c:	14000001 	b	50a0 <entry_66+0x100>
    50a0:	14000001 	b	50a4 <entry_66+0x104>
    50a4:	14000001 	b	50a8 <entry_66+0x108>
    50a8:	17fff4a4 	b	2338 <dummy_done>
    50ac:	d503201f 	nop

00000000000050b0 <entry_67>:
    50b0:	14000001 	b	50b4 <entry_67+0x4>
    50b4:	14000001 	b	50b8 <entry_67+0x8>
    50b8:	14000001 	b	50bc <entry_67+0xc>
    50bc:	14000001 	b	50c0 <entry_67+0x10>
    50c0:	14000001 	b	50c4 <entry_67+0x14>
    50c4:	14000001 	b	50c8 <entry_67+0x18>
    50c8:	14000001 	b	50cc <entry_67+0x1c>
    50cc:	14000001 	b	50d0 <entry_67+0x20>
    50d0:	14000001 	b	50d4 <entry_67+0x24>
    50d4:	14000001 	b	50d8 <entry_67+0x28>
    50d8:	14000001 	b	50dc <entry_67+0x2c>
    50dc:	14000001 	b	50e0 <entry_67+0x30>
    50e0:	14000001 	b	50e4 <entry_67+0x34>
    50e4:	14000001 	b	50e8 <entry_67+0x38>
    50e8:	14000001 	b	50ec <entry_67+0x3c>
    50ec:	14000001 	b	50f0 <entry_67+0x40>
    50f0:	14000001 	b	50f4 <entry_67+0x44>
    50f4:	14000001 	b	50f8 <entry_67+0x48>
    50f8:	14000001 	b	50fc <entry_67+0x4c>
    50fc:	14000001 	b	5100 <entry_67+0x50>
    5100:	14000001 	b	5104 <entry_67+0x54>
    5104:	14000001 	b	5108 <entry_67+0x58>
    5108:	14000001 	b	510c <entry_67+0x5c>
    510c:	14000001 	b	5110 <entry_67+0x60>
    5110:	14000001 	b	5114 <entry_67+0x64>
    5114:	14000001 	b	5118 <entry_67+0x68>
    5118:	14000001 	b	511c <entry_67+0x6c>
    511c:	14000001 	b	5120 <entry_67+0x70>
    5120:	14000001 	b	5124 <entry_67+0x74>
    5124:	14000001 	b	5128 <entry_67+0x78>
    5128:	14000001 	b	512c <entry_67+0x7c>
    512c:	14000001 	b	5130 <entry_67+0x80>
    5130:	14000001 	b	5134 <entry_67+0x84>
    5134:	14000001 	b	5138 <entry_67+0x88>
    5138:	14000001 	b	513c <entry_67+0x8c>
    513c:	14000001 	b	5140 <entry_67+0x90>
    5140:	14000001 	b	5144 <entry_67+0x94>
    5144:	14000001 	b	5148 <entry_67+0x98>
    5148:	14000001 	b	514c <entry_67+0x9c>
    514c:	14000001 	b	5150 <entry_67+0xa0>
    5150:	14000001 	b	5154 <entry_67+0xa4>
    5154:	14000001 	b	5158 <entry_67+0xa8>
    5158:	14000001 	b	515c <entry_67+0xac>
    515c:	14000001 	b	5160 <entry_67+0xb0>
    5160:	14000001 	b	5164 <entry_67+0xb4>
    5164:	14000001 	b	5168 <entry_67+0xb8>
    5168:	14000001 	b	516c <entry_67+0xbc>
    516c:	14000001 	b	5170 <entry_67+0xc0>
    5170:	14000001 	b	5174 <entry_67+0xc4>
    5174:	14000001 	b	5178 <entry_67+0xc8>
    5178:	14000001 	b	517c <entry_67+0xcc>
    517c:	14000001 	b	5180 <entry_67+0xd0>
    5180:	14000001 	b	5184 <entry_67+0xd4>
    5184:	14000001 	b	5188 <entry_67+0xd8>
    5188:	14000001 	b	518c <entry_67+0xdc>
    518c:	14000001 	b	5190 <entry_67+0xe0>
    5190:	14000001 	b	5194 <entry_67+0xe4>
    5194:	14000001 	b	5198 <entry_67+0xe8>
    5198:	14000001 	b	519c <entry_67+0xec>
    519c:	14000001 	b	51a0 <entry_67+0xf0>
    51a0:	14000001 	b	51a4 <entry_67+0xf4>
    51a4:	14000001 	b	51a8 <entry_67+0xf8>
    51a8:	14000001 	b	51ac <entry_67+0xfc>
    51ac:	14000001 	b	51b0 <entry_67+0x100>
    51b0:	14000001 	b	51b4 <entry_67+0x104>
    51b4:	14000001 	b	51b8 <entry_67+0x108>
    51b8:	14000001 	b	51bc <entry_67+0x10c>
    51bc:	17fff45f 	b	2338 <dummy_done>

00000000000051c0 <entry_68>:
    51c0:	14000001 	b	51c4 <entry_68+0x4>
    51c4:	14000001 	b	51c8 <entry_68+0x8>
    51c8:	14000001 	b	51cc <entry_68+0xc>
    51cc:	14000001 	b	51d0 <entry_68+0x10>
    51d0:	14000001 	b	51d4 <entry_68+0x14>
    51d4:	14000001 	b	51d8 <entry_68+0x18>
    51d8:	14000001 	b	51dc <entry_68+0x1c>
    51dc:	14000001 	b	51e0 <entry_68+0x20>
    51e0:	14000001 	b	51e4 <entry_68+0x24>
    51e4:	14000001 	b	51e8 <entry_68+0x28>
    51e8:	14000001 	b	51ec <entry_68+0x2c>
    51ec:	14000001 	b	51f0 <entry_68+0x30>
    51f0:	14000001 	b	51f4 <entry_68+0x34>
    51f4:	14000001 	b	51f8 <entry_68+0x38>
    51f8:	14000001 	b	51fc <entry_68+0x3c>
    51fc:	14000001 	b	5200 <entry_68+0x40>
    5200:	14000001 	b	5204 <entry_68+0x44>
    5204:	14000001 	b	5208 <entry_68+0x48>
    5208:	14000001 	b	520c <entry_68+0x4c>
    520c:	14000001 	b	5210 <entry_68+0x50>
    5210:	14000001 	b	5214 <entry_68+0x54>
    5214:	14000001 	b	5218 <entry_68+0x58>
    5218:	14000001 	b	521c <entry_68+0x5c>
    521c:	14000001 	b	5220 <entry_68+0x60>
    5220:	14000001 	b	5224 <entry_68+0x64>
    5224:	14000001 	b	5228 <entry_68+0x68>
    5228:	14000001 	b	522c <entry_68+0x6c>
    522c:	14000001 	b	5230 <entry_68+0x70>
    5230:	14000001 	b	5234 <entry_68+0x74>
    5234:	14000001 	b	5238 <entry_68+0x78>
    5238:	14000001 	b	523c <entry_68+0x7c>
    523c:	14000001 	b	5240 <entry_68+0x80>
    5240:	14000001 	b	5244 <entry_68+0x84>
    5244:	14000001 	b	5248 <entry_68+0x88>
    5248:	14000001 	b	524c <entry_68+0x8c>
    524c:	14000001 	b	5250 <entry_68+0x90>
    5250:	14000001 	b	5254 <entry_68+0x94>
    5254:	14000001 	b	5258 <entry_68+0x98>
    5258:	14000001 	b	525c <entry_68+0x9c>
    525c:	14000001 	b	5260 <entry_68+0xa0>
    5260:	14000001 	b	5264 <entry_68+0xa4>
    5264:	14000001 	b	5268 <entry_68+0xa8>
    5268:	14000001 	b	526c <entry_68+0xac>
    526c:	14000001 	b	5270 <entry_68+0xb0>
    5270:	14000001 	b	5274 <entry_68+0xb4>
    5274:	14000001 	b	5278 <entry_68+0xb8>
    5278:	14000001 	b	527c <entry_68+0xbc>
    527c:	14000001 	b	5280 <entry_68+0xc0>
    5280:	14000001 	b	5284 <entry_68+0xc4>
    5284:	14000001 	b	5288 <entry_68+0xc8>
    5288:	14000001 	b	528c <entry_68+0xcc>
    528c:	14000001 	b	5290 <entry_68+0xd0>
    5290:	14000001 	b	5294 <entry_68+0xd4>
    5294:	14000001 	b	5298 <entry_68+0xd8>
    5298:	14000001 	b	529c <entry_68+0xdc>
    529c:	14000001 	b	52a0 <entry_68+0xe0>
    52a0:	14000001 	b	52a4 <entry_68+0xe4>
    52a4:	14000001 	b	52a8 <entry_68+0xe8>
    52a8:	14000001 	b	52ac <entry_68+0xec>
    52ac:	14000001 	b	52b0 <entry_68+0xf0>
    52b0:	14000001 	b	52b4 <entry_68+0xf4>
    52b4:	14000001 	b	52b8 <entry_68+0xf8>
    52b8:	14000001 	b	52bc <entry_68+0xfc>
    52bc:	14000001 	b	52c0 <entry_68+0x100>
    52c0:	14000001 	b	52c4 <entry_68+0x104>
    52c4:	14000001 	b	52c8 <entry_68+0x108>
    52c8:	14000001 	b	52cc <entry_68+0x10c>
    52cc:	14000001 	b	52d0 <entry_68+0x110>
    52d0:	17fff41a 	b	2338 <dummy_done>
    52d4:	d503201f 	nop
    52d8:	d503201f 	nop
    52dc:	d503201f 	nop

00000000000052e0 <entry_69>:
    52e0:	14000001 	b	52e4 <entry_69+0x4>
    52e4:	14000001 	b	52e8 <entry_69+0x8>
    52e8:	14000001 	b	52ec <entry_69+0xc>
    52ec:	14000001 	b	52f0 <entry_69+0x10>
    52f0:	14000001 	b	52f4 <entry_69+0x14>
    52f4:	14000001 	b	52f8 <entry_69+0x18>
    52f8:	14000001 	b	52fc <entry_69+0x1c>
    52fc:	14000001 	b	5300 <entry_69+0x20>
    5300:	14000001 	b	5304 <entry_69+0x24>
    5304:	14000001 	b	5308 <entry_69+0x28>
    5308:	14000001 	b	530c <entry_69+0x2c>
    530c:	14000001 	b	5310 <entry_69+0x30>
    5310:	14000001 	b	5314 <entry_69+0x34>
    5314:	14000001 	b	5318 <entry_69+0x38>
    5318:	14000001 	b	531c <entry_69+0x3c>
    531c:	14000001 	b	5320 <entry_69+0x40>
    5320:	14000001 	b	5324 <entry_69+0x44>
    5324:	14000001 	b	5328 <entry_69+0x48>
    5328:	14000001 	b	532c <entry_69+0x4c>
    532c:	14000001 	b	5330 <entry_69+0x50>
    5330:	14000001 	b	5334 <entry_69+0x54>
    5334:	14000001 	b	5338 <entry_69+0x58>
    5338:	14000001 	b	533c <entry_69+0x5c>
    533c:	14000001 	b	5340 <entry_69+0x60>
    5340:	14000001 	b	5344 <entry_69+0x64>
    5344:	14000001 	b	5348 <entry_69+0x68>
    5348:	14000001 	b	534c <entry_69+0x6c>
    534c:	14000001 	b	5350 <entry_69+0x70>
    5350:	14000001 	b	5354 <entry_69+0x74>
    5354:	14000001 	b	5358 <entry_69+0x78>
    5358:	14000001 	b	535c <entry_69+0x7c>
    535c:	14000001 	b	5360 <entry_69+0x80>
    5360:	14000001 	b	5364 <entry_69+0x84>
    5364:	14000001 	b	5368 <entry_69+0x88>
    5368:	14000001 	b	536c <entry_69+0x8c>
    536c:	14000001 	b	5370 <entry_69+0x90>
    5370:	14000001 	b	5374 <entry_69+0x94>
    5374:	14000001 	b	5378 <entry_69+0x98>
    5378:	14000001 	b	537c <entry_69+0x9c>
    537c:	14000001 	b	5380 <entry_69+0xa0>
    5380:	14000001 	b	5384 <entry_69+0xa4>
    5384:	14000001 	b	5388 <entry_69+0xa8>
    5388:	14000001 	b	538c <entry_69+0xac>
    538c:	14000001 	b	5390 <entry_69+0xb0>
    5390:	14000001 	b	5394 <entry_69+0xb4>
    5394:	14000001 	b	5398 <entry_69+0xb8>
    5398:	14000001 	b	539c <entry_69+0xbc>
    539c:	14000001 	b	53a0 <entry_69+0xc0>
    53a0:	14000001 	b	53a4 <entry_69+0xc4>
    53a4:	14000001 	b	53a8 <entry_69+0xc8>
    53a8:	14000001 	b	53ac <entry_69+0xcc>
    53ac:	14000001 	b	53b0 <entry_69+0xd0>
    53b0:	14000001 	b	53b4 <entry_69+0xd4>
    53b4:	14000001 	b	53b8 <entry_69+0xd8>
    53b8:	14000001 	b	53bc <entry_69+0xdc>
    53bc:	14000001 	b	53c0 <entry_69+0xe0>
    53c0:	14000001 	b	53c4 <entry_69+0xe4>
    53c4:	14000001 	b	53c8 <entry_69+0xe8>
    53c8:	14000001 	b	53cc <entry_69+0xec>
    53cc:	14000001 	b	53d0 <entry_69+0xf0>
    53d0:	14000001 	b	53d4 <entry_69+0xf4>
    53d4:	14000001 	b	53d8 <entry_69+0xf8>
    53d8:	14000001 	b	53dc <entry_69+0xfc>
    53dc:	14000001 	b	53e0 <entry_69+0x100>
    53e0:	14000001 	b	53e4 <entry_69+0x104>
    53e4:	14000001 	b	53e8 <entry_69+0x108>
    53e8:	14000001 	b	53ec <entry_69+0x10c>
    53ec:	14000001 	b	53f0 <entry_69+0x110>
    53f0:	14000001 	b	53f4 <entry_69+0x114>
    53f4:	17fff3d1 	b	2338 <dummy_done>
    53f8:	d503201f 	nop
    53fc:	d503201f 	nop

0000000000005400 <entry_70>:
    5400:	14000001 	b	5404 <entry_70+0x4>
    5404:	14000001 	b	5408 <entry_70+0x8>
    5408:	14000001 	b	540c <entry_70+0xc>
    540c:	14000001 	b	5410 <entry_70+0x10>
    5410:	14000001 	b	5414 <entry_70+0x14>
    5414:	14000001 	b	5418 <entry_70+0x18>
    5418:	14000001 	b	541c <entry_70+0x1c>
    541c:	14000001 	b	5420 <entry_70+0x20>
    5420:	14000001 	b	5424 <entry_70+0x24>
    5424:	14000001 	b	5428 <entry_70+0x28>
    5428:	14000001 	b	542c <entry_70+0x2c>
    542c:	14000001 	b	5430 <entry_70+0x30>
    5430:	14000001 	b	5434 <entry_70+0x34>
    5434:	14000001 	b	5438 <entry_70+0x38>
    5438:	14000001 	b	543c <entry_70+0x3c>
    543c:	14000001 	b	5440 <entry_70+0x40>
    5440:	14000001 	b	5444 <entry_70+0x44>
    5444:	14000001 	b	5448 <entry_70+0x48>
    5448:	14000001 	b	544c <entry_70+0x4c>
    544c:	14000001 	b	5450 <entry_70+0x50>
    5450:	14000001 	b	5454 <entry_70+0x54>
    5454:	14000001 	b	5458 <entry_70+0x58>
    5458:	14000001 	b	545c <entry_70+0x5c>
    545c:	14000001 	b	5460 <entry_70+0x60>
    5460:	14000001 	b	5464 <entry_70+0x64>
    5464:	14000001 	b	5468 <entry_70+0x68>
    5468:	14000001 	b	546c <entry_70+0x6c>
    546c:	14000001 	b	5470 <entry_70+0x70>
    5470:	14000001 	b	5474 <entry_70+0x74>
    5474:	14000001 	b	5478 <entry_70+0x78>
    5478:	14000001 	b	547c <entry_70+0x7c>
    547c:	14000001 	b	5480 <entry_70+0x80>
    5480:	14000001 	b	5484 <entry_70+0x84>
    5484:	14000001 	b	5488 <entry_70+0x88>
    5488:	14000001 	b	548c <entry_70+0x8c>
    548c:	14000001 	b	5490 <entry_70+0x90>
    5490:	14000001 	b	5494 <entry_70+0x94>
    5494:	14000001 	b	5498 <entry_70+0x98>
    5498:	14000001 	b	549c <entry_70+0x9c>
    549c:	14000001 	b	54a0 <entry_70+0xa0>
    54a0:	14000001 	b	54a4 <entry_70+0xa4>
    54a4:	14000001 	b	54a8 <entry_70+0xa8>
    54a8:	14000001 	b	54ac <entry_70+0xac>
    54ac:	14000001 	b	54b0 <entry_70+0xb0>
    54b0:	14000001 	b	54b4 <entry_70+0xb4>
    54b4:	14000001 	b	54b8 <entry_70+0xb8>
    54b8:	14000001 	b	54bc <entry_70+0xbc>
    54bc:	14000001 	b	54c0 <entry_70+0xc0>
    54c0:	14000001 	b	54c4 <entry_70+0xc4>
    54c4:	14000001 	b	54c8 <entry_70+0xc8>
    54c8:	14000001 	b	54cc <entry_70+0xcc>
    54cc:	14000001 	b	54d0 <entry_70+0xd0>
    54d0:	14000001 	b	54d4 <entry_70+0xd4>
    54d4:	14000001 	b	54d8 <entry_70+0xd8>
    54d8:	14000001 	b	54dc <entry_70+0xdc>
    54dc:	14000001 	b	54e0 <entry_70+0xe0>
    54e0:	14000001 	b	54e4 <entry_70+0xe4>
    54e4:	14000001 	b	54e8 <entry_70+0xe8>
    54e8:	14000001 	b	54ec <entry_70+0xec>
    54ec:	14000001 	b	54f0 <entry_70+0xf0>
    54f0:	14000001 	b	54f4 <entry_70+0xf4>
    54f4:	14000001 	b	54f8 <entry_70+0xf8>
    54f8:	14000001 	b	54fc <entry_70+0xfc>
    54fc:	14000001 	b	5500 <entry_70+0x100>
    5500:	14000001 	b	5504 <entry_70+0x104>
    5504:	14000001 	b	5508 <entry_70+0x108>
    5508:	14000001 	b	550c <entry_70+0x10c>
    550c:	14000001 	b	5510 <entry_70+0x110>
    5510:	14000001 	b	5514 <entry_70+0x114>
    5514:	14000001 	b	5518 <entry_70+0x118>
    5518:	17fff388 	b	2338 <dummy_done>
    551c:	d503201f 	nop

0000000000005520 <entry_71>:
    5520:	14000001 	b	5524 <entry_71+0x4>
    5524:	14000001 	b	5528 <entry_71+0x8>
    5528:	14000001 	b	552c <entry_71+0xc>
    552c:	14000001 	b	5530 <entry_71+0x10>
    5530:	14000001 	b	5534 <entry_71+0x14>
    5534:	14000001 	b	5538 <entry_71+0x18>
    5538:	14000001 	b	553c <entry_71+0x1c>
    553c:	14000001 	b	5540 <entry_71+0x20>
    5540:	14000001 	b	5544 <entry_71+0x24>
    5544:	14000001 	b	5548 <entry_71+0x28>
    5548:	14000001 	b	554c <entry_71+0x2c>
    554c:	14000001 	b	5550 <entry_71+0x30>
    5550:	14000001 	b	5554 <entry_71+0x34>
    5554:	14000001 	b	5558 <entry_71+0x38>
    5558:	14000001 	b	555c <entry_71+0x3c>
    555c:	14000001 	b	5560 <entry_71+0x40>
    5560:	14000001 	b	5564 <entry_71+0x44>
    5564:	14000001 	b	5568 <entry_71+0x48>
    5568:	14000001 	b	556c <entry_71+0x4c>
    556c:	14000001 	b	5570 <entry_71+0x50>
    5570:	14000001 	b	5574 <entry_71+0x54>
    5574:	14000001 	b	5578 <entry_71+0x58>
    5578:	14000001 	b	557c <entry_71+0x5c>
    557c:	14000001 	b	5580 <entry_71+0x60>
    5580:	14000001 	b	5584 <entry_71+0x64>
    5584:	14000001 	b	5588 <entry_71+0x68>
    5588:	14000001 	b	558c <entry_71+0x6c>
    558c:	14000001 	b	5590 <entry_71+0x70>
    5590:	14000001 	b	5594 <entry_71+0x74>
    5594:	14000001 	b	5598 <entry_71+0x78>
    5598:	14000001 	b	559c <entry_71+0x7c>
    559c:	14000001 	b	55a0 <entry_71+0x80>
    55a0:	14000001 	b	55a4 <entry_71+0x84>
    55a4:	14000001 	b	55a8 <entry_71+0x88>
    55a8:	14000001 	b	55ac <entry_71+0x8c>
    55ac:	14000001 	b	55b0 <entry_71+0x90>
    55b0:	14000001 	b	55b4 <entry_71+0x94>
    55b4:	14000001 	b	55b8 <entry_71+0x98>
    55b8:	14000001 	b	55bc <entry_71+0x9c>
    55bc:	14000001 	b	55c0 <entry_71+0xa0>
    55c0:	14000001 	b	55c4 <entry_71+0xa4>
    55c4:	14000001 	b	55c8 <entry_71+0xa8>
    55c8:	14000001 	b	55cc <entry_71+0xac>
    55cc:	14000001 	b	55d0 <entry_71+0xb0>
    55d0:	14000001 	b	55d4 <entry_71+0xb4>
    55d4:	14000001 	b	55d8 <entry_71+0xb8>
    55d8:	14000001 	b	55dc <entry_71+0xbc>
    55dc:	14000001 	b	55e0 <entry_71+0xc0>
    55e0:	14000001 	b	55e4 <entry_71+0xc4>
    55e4:	14000001 	b	55e8 <entry_71+0xc8>
    55e8:	14000001 	b	55ec <entry_71+0xcc>
    55ec:	14000001 	b	55f0 <entry_71+0xd0>
    55f0:	14000001 	b	55f4 <entry_71+0xd4>
    55f4:	14000001 	b	55f8 <entry_71+0xd8>
    55f8:	14000001 	b	55fc <entry_71+0xdc>
    55fc:	14000001 	b	5600 <entry_71+0xe0>
    5600:	14000001 	b	5604 <entry_71+0xe4>
    5604:	14000001 	b	5608 <entry_71+0xe8>
    5608:	14000001 	b	560c <entry_71+0xec>
    560c:	14000001 	b	5610 <entry_71+0xf0>
    5610:	14000001 	b	5614 <entry_71+0xf4>
    5614:	14000001 	b	5618 <entry_71+0xf8>
    5618:	14000001 	b	561c <entry_71+0xfc>
    561c:	14000001 	b	5620 <entry_71+0x100>
    5620:	14000001 	b	5624 <entry_71+0x104>
    5624:	14000001 	b	5628 <entry_71+0x108>
    5628:	14000001 	b	562c <entry_71+0x10c>
    562c:	14000001 	b	5630 <entry_71+0x110>
    5630:	14000001 	b	5634 <entry_71+0x114>
    5634:	14000001 	b	5638 <entry_71+0x118>
    5638:	14000001 	b	563c <entry_71+0x11c>
    563c:	17fff33f 	b	2338 <dummy_done>

0000000000005640 <entry_72>:
    5640:	14000001 	b	5644 <entry_72+0x4>
    5644:	14000001 	b	5648 <entry_72+0x8>
    5648:	14000001 	b	564c <entry_72+0xc>
    564c:	14000001 	b	5650 <entry_72+0x10>
    5650:	14000001 	b	5654 <entry_72+0x14>
    5654:	14000001 	b	5658 <entry_72+0x18>
    5658:	14000001 	b	565c <entry_72+0x1c>
    565c:	14000001 	b	5660 <entry_72+0x20>
    5660:	14000001 	b	5664 <entry_72+0x24>
    5664:	14000001 	b	5668 <entry_72+0x28>
    5668:	14000001 	b	566c <entry_72+0x2c>
    566c:	14000001 	b	5670 <entry_72+0x30>
    5670:	14000001 	b	5674 <entry_72+0x34>
    5674:	14000001 	b	5678 <entry_72+0x38>
    5678:	14000001 	b	567c <entry_72+0x3c>
    567c:	14000001 	b	5680 <entry_72+0x40>
    5680:	14000001 	b	5684 <entry_72+0x44>
    5684:	14000001 	b	5688 <entry_72+0x48>
    5688:	14000001 	b	568c <entry_72+0x4c>
    568c:	14000001 	b	5690 <entry_72+0x50>
    5690:	14000001 	b	5694 <entry_72+0x54>
    5694:	14000001 	b	5698 <entry_72+0x58>
    5698:	14000001 	b	569c <entry_72+0x5c>
    569c:	14000001 	b	56a0 <entry_72+0x60>
    56a0:	14000001 	b	56a4 <entry_72+0x64>
    56a4:	14000001 	b	56a8 <entry_72+0x68>
    56a8:	14000001 	b	56ac <entry_72+0x6c>
    56ac:	14000001 	b	56b0 <entry_72+0x70>
    56b0:	14000001 	b	56b4 <entry_72+0x74>
    56b4:	14000001 	b	56b8 <entry_72+0x78>
    56b8:	14000001 	b	56bc <entry_72+0x7c>
    56bc:	14000001 	b	56c0 <entry_72+0x80>
    56c0:	14000001 	b	56c4 <entry_72+0x84>
    56c4:	14000001 	b	56c8 <entry_72+0x88>
    56c8:	14000001 	b	56cc <entry_72+0x8c>
    56cc:	14000001 	b	56d0 <entry_72+0x90>
    56d0:	14000001 	b	56d4 <entry_72+0x94>
    56d4:	14000001 	b	56d8 <entry_72+0x98>
    56d8:	14000001 	b	56dc <entry_72+0x9c>
    56dc:	14000001 	b	56e0 <entry_72+0xa0>
    56e0:	14000001 	b	56e4 <entry_72+0xa4>
    56e4:	14000001 	b	56e8 <entry_72+0xa8>
    56e8:	14000001 	b	56ec <entry_72+0xac>
    56ec:	14000001 	b	56f0 <entry_72+0xb0>
    56f0:	14000001 	b	56f4 <entry_72+0xb4>
    56f4:	14000001 	b	56f8 <entry_72+0xb8>
    56f8:	14000001 	b	56fc <entry_72+0xbc>
    56fc:	14000001 	b	5700 <entry_72+0xc0>
    5700:	14000001 	b	5704 <entry_72+0xc4>
    5704:	14000001 	b	5708 <entry_72+0xc8>
    5708:	14000001 	b	570c <entry_72+0xcc>
    570c:	14000001 	b	5710 <entry_72+0xd0>
    5710:	14000001 	b	5714 <entry_72+0xd4>
    5714:	14000001 	b	5718 <entry_72+0xd8>
    5718:	14000001 	b	571c <entry_72+0xdc>
    571c:	14000001 	b	5720 <entry_72+0xe0>
    5720:	14000001 	b	5724 <entry_72+0xe4>
    5724:	14000001 	b	5728 <entry_72+0xe8>
    5728:	14000001 	b	572c <entry_72+0xec>
    572c:	14000001 	b	5730 <entry_72+0xf0>
    5730:	14000001 	b	5734 <entry_72+0xf4>
    5734:	14000001 	b	5738 <entry_72+0xf8>
    5738:	14000001 	b	573c <entry_72+0xfc>
    573c:	14000001 	b	5740 <entry_72+0x100>
    5740:	14000001 	b	5744 <entry_72+0x104>
    5744:	14000001 	b	5748 <entry_72+0x108>
    5748:	14000001 	b	574c <entry_72+0x10c>
    574c:	14000001 	b	5750 <entry_72+0x110>
    5750:	14000001 	b	5754 <entry_72+0x114>
    5754:	14000001 	b	5758 <entry_72+0x118>
    5758:	14000001 	b	575c <entry_72+0x11c>
    575c:	14000001 	b	5760 <entry_72+0x120>
    5760:	17fff2f6 	b	2338 <dummy_done>
    5764:	d503201f 	nop
    5768:	d503201f 	nop
    576c:	d503201f 	nop

0000000000005770 <entry_73>:
    5770:	14000001 	b	5774 <entry_73+0x4>
    5774:	14000001 	b	5778 <entry_73+0x8>
    5778:	14000001 	b	577c <entry_73+0xc>
    577c:	14000001 	b	5780 <entry_73+0x10>
    5780:	14000001 	b	5784 <entry_73+0x14>
    5784:	14000001 	b	5788 <entry_73+0x18>
    5788:	14000001 	b	578c <entry_73+0x1c>
    578c:	14000001 	b	5790 <entry_73+0x20>
    5790:	14000001 	b	5794 <entry_73+0x24>
    5794:	14000001 	b	5798 <entry_73+0x28>
    5798:	14000001 	b	579c <entry_73+0x2c>
    579c:	14000001 	b	57a0 <entry_73+0x30>
    57a0:	14000001 	b	57a4 <entry_73+0x34>
    57a4:	14000001 	b	57a8 <entry_73+0x38>
    57a8:	14000001 	b	57ac <entry_73+0x3c>
    57ac:	14000001 	b	57b0 <entry_73+0x40>
    57b0:	14000001 	b	57b4 <entry_73+0x44>
    57b4:	14000001 	b	57b8 <entry_73+0x48>
    57b8:	14000001 	b	57bc <entry_73+0x4c>
    57bc:	14000001 	b	57c0 <entry_73+0x50>
    57c0:	14000001 	b	57c4 <entry_73+0x54>
    57c4:	14000001 	b	57c8 <entry_73+0x58>
    57c8:	14000001 	b	57cc <entry_73+0x5c>
    57cc:	14000001 	b	57d0 <entry_73+0x60>
    57d0:	14000001 	b	57d4 <entry_73+0x64>
    57d4:	14000001 	b	57d8 <entry_73+0x68>
    57d8:	14000001 	b	57dc <entry_73+0x6c>
    57dc:	14000001 	b	57e0 <entry_73+0x70>
    57e0:	14000001 	b	57e4 <entry_73+0x74>
    57e4:	14000001 	b	57e8 <entry_73+0x78>
    57e8:	14000001 	b	57ec <entry_73+0x7c>
    57ec:	14000001 	b	57f0 <entry_73+0x80>
    57f0:	14000001 	b	57f4 <entry_73+0x84>
    57f4:	14000001 	b	57f8 <entry_73+0x88>
    57f8:	14000001 	b	57fc <entry_73+0x8c>
    57fc:	14000001 	b	5800 <entry_73+0x90>
    5800:	14000001 	b	5804 <entry_73+0x94>
    5804:	14000001 	b	5808 <entry_73+0x98>
    5808:	14000001 	b	580c <entry_73+0x9c>
    580c:	14000001 	b	5810 <entry_73+0xa0>
    5810:	14000001 	b	5814 <entry_73+0xa4>
    5814:	14000001 	b	5818 <entry_73+0xa8>
    5818:	14000001 	b	581c <entry_73+0xac>
    581c:	14000001 	b	5820 <entry_73+0xb0>
    5820:	14000001 	b	5824 <entry_73+0xb4>
    5824:	14000001 	b	5828 <entry_73+0xb8>
    5828:	14000001 	b	582c <entry_73+0xbc>
    582c:	14000001 	b	5830 <entry_73+0xc0>
    5830:	14000001 	b	5834 <entry_73+0xc4>
    5834:	14000001 	b	5838 <entry_73+0xc8>
    5838:	14000001 	b	583c <entry_73+0xcc>
    583c:	14000001 	b	5840 <entry_73+0xd0>
    5840:	14000001 	b	5844 <entry_73+0xd4>
    5844:	14000001 	b	5848 <entry_73+0xd8>
    5848:	14000001 	b	584c <entry_73+0xdc>
    584c:	14000001 	b	5850 <entry_73+0xe0>
    5850:	14000001 	b	5854 <entry_73+0xe4>
    5854:	14000001 	b	5858 <entry_73+0xe8>
    5858:	14000001 	b	585c <entry_73+0xec>
    585c:	14000001 	b	5860 <entry_73+0xf0>
    5860:	14000001 	b	5864 <entry_73+0xf4>
    5864:	14000001 	b	5868 <entry_73+0xf8>
    5868:	14000001 	b	586c <entry_73+0xfc>
    586c:	14000001 	b	5870 <entry_73+0x100>
    5870:	14000001 	b	5874 <entry_73+0x104>
    5874:	14000001 	b	5878 <entry_73+0x108>
    5878:	14000001 	b	587c <entry_73+0x10c>
    587c:	14000001 	b	5880 <entry_73+0x110>
    5880:	14000001 	b	5884 <entry_73+0x114>
    5884:	14000001 	b	5888 <entry_73+0x118>
    5888:	14000001 	b	588c <entry_73+0x11c>
    588c:	14000001 	b	5890 <entry_73+0x120>
    5890:	14000001 	b	5894 <entry_73+0x124>
    5894:	17fff2a9 	b	2338 <dummy_done>
    5898:	d503201f 	nop
    589c:	d503201f 	nop

00000000000058a0 <entry_74>:
    58a0:	14000001 	b	58a4 <entry_74+0x4>
    58a4:	14000001 	b	58a8 <entry_74+0x8>
    58a8:	14000001 	b	58ac <entry_74+0xc>
    58ac:	14000001 	b	58b0 <entry_74+0x10>
    58b0:	14000001 	b	58b4 <entry_74+0x14>
    58b4:	14000001 	b	58b8 <entry_74+0x18>
    58b8:	14000001 	b	58bc <entry_74+0x1c>
    58bc:	14000001 	b	58c0 <entry_74+0x20>
    58c0:	14000001 	b	58c4 <entry_74+0x24>
    58c4:	14000001 	b	58c8 <entry_74+0x28>
    58c8:	14000001 	b	58cc <entry_74+0x2c>
    58cc:	14000001 	b	58d0 <entry_74+0x30>
    58d0:	14000001 	b	58d4 <entry_74+0x34>
    58d4:	14000001 	b	58d8 <entry_74+0x38>
    58d8:	14000001 	b	58dc <entry_74+0x3c>
    58dc:	14000001 	b	58e0 <entry_74+0x40>
    58e0:	14000001 	b	58e4 <entry_74+0x44>
    58e4:	14000001 	b	58e8 <entry_74+0x48>
    58e8:	14000001 	b	58ec <entry_74+0x4c>
    58ec:	14000001 	b	58f0 <entry_74+0x50>
    58f0:	14000001 	b	58f4 <entry_74+0x54>
    58f4:	14000001 	b	58f8 <entry_74+0x58>
    58f8:	14000001 	b	58fc <entry_74+0x5c>
    58fc:	14000001 	b	5900 <entry_74+0x60>
    5900:	14000001 	b	5904 <entry_74+0x64>
    5904:	14000001 	b	5908 <entry_74+0x68>
    5908:	14000001 	b	590c <entry_74+0x6c>
    590c:	14000001 	b	5910 <entry_74+0x70>
    5910:	14000001 	b	5914 <entry_74+0x74>
    5914:	14000001 	b	5918 <entry_74+0x78>
    5918:	14000001 	b	591c <entry_74+0x7c>
    591c:	14000001 	b	5920 <entry_74+0x80>
    5920:	14000001 	b	5924 <entry_74+0x84>
    5924:	14000001 	b	5928 <entry_74+0x88>
    5928:	14000001 	b	592c <entry_74+0x8c>
    592c:	14000001 	b	5930 <entry_74+0x90>
    5930:	14000001 	b	5934 <entry_74+0x94>
    5934:	14000001 	b	5938 <entry_74+0x98>
    5938:	14000001 	b	593c <entry_74+0x9c>
    593c:	14000001 	b	5940 <entry_74+0xa0>
    5940:	14000001 	b	5944 <entry_74+0xa4>
    5944:	14000001 	b	5948 <entry_74+0xa8>
    5948:	14000001 	b	594c <entry_74+0xac>
    594c:	14000001 	b	5950 <entry_74+0xb0>
    5950:	14000001 	b	5954 <entry_74+0xb4>
    5954:	14000001 	b	5958 <entry_74+0xb8>
    5958:	14000001 	b	595c <entry_74+0xbc>
    595c:	14000001 	b	5960 <entry_74+0xc0>
    5960:	14000001 	b	5964 <entry_74+0xc4>
    5964:	14000001 	b	5968 <entry_74+0xc8>
    5968:	14000001 	b	596c <entry_74+0xcc>
    596c:	14000001 	b	5970 <entry_74+0xd0>
    5970:	14000001 	b	5974 <entry_74+0xd4>
    5974:	14000001 	b	5978 <entry_74+0xd8>
    5978:	14000001 	b	597c <entry_74+0xdc>
    597c:	14000001 	b	5980 <entry_74+0xe0>
    5980:	14000001 	b	5984 <entry_74+0xe4>
    5984:	14000001 	b	5988 <entry_74+0xe8>
    5988:	14000001 	b	598c <entry_74+0xec>
    598c:	14000001 	b	5990 <entry_74+0xf0>
    5990:	14000001 	b	5994 <entry_74+0xf4>
    5994:	14000001 	b	5998 <entry_74+0xf8>
    5998:	14000001 	b	599c <entry_74+0xfc>
    599c:	14000001 	b	59a0 <entry_74+0x100>
    59a0:	14000001 	b	59a4 <entry_74+0x104>
    59a4:	14000001 	b	59a8 <entry_74+0x108>
    59a8:	14000001 	b	59ac <entry_74+0x10c>
    59ac:	14000001 	b	59b0 <entry_74+0x110>
    59b0:	14000001 	b	59b4 <entry_74+0x114>
    59b4:	14000001 	b	59b8 <entry_74+0x118>
    59b8:	14000001 	b	59bc <entry_74+0x11c>
    59bc:	14000001 	b	59c0 <entry_74+0x120>
    59c0:	14000001 	b	59c4 <entry_74+0x124>
    59c4:	14000001 	b	59c8 <entry_74+0x128>
    59c8:	17fff25c 	b	2338 <dummy_done>
    59cc:	d503201f 	nop

00000000000059d0 <entry_75>:
    59d0:	14000001 	b	59d4 <entry_75+0x4>
    59d4:	14000001 	b	59d8 <entry_75+0x8>
    59d8:	14000001 	b	59dc <entry_75+0xc>
    59dc:	14000001 	b	59e0 <entry_75+0x10>
    59e0:	14000001 	b	59e4 <entry_75+0x14>
    59e4:	14000001 	b	59e8 <entry_75+0x18>
    59e8:	14000001 	b	59ec <entry_75+0x1c>
    59ec:	14000001 	b	59f0 <entry_75+0x20>
    59f0:	14000001 	b	59f4 <entry_75+0x24>
    59f4:	14000001 	b	59f8 <entry_75+0x28>
    59f8:	14000001 	b	59fc <entry_75+0x2c>
    59fc:	14000001 	b	5a00 <entry_75+0x30>
    5a00:	14000001 	b	5a04 <entry_75+0x34>
    5a04:	14000001 	b	5a08 <entry_75+0x38>
    5a08:	14000001 	b	5a0c <entry_75+0x3c>
    5a0c:	14000001 	b	5a10 <entry_75+0x40>
    5a10:	14000001 	b	5a14 <entry_75+0x44>
    5a14:	14000001 	b	5a18 <entry_75+0x48>
    5a18:	14000001 	b	5a1c <entry_75+0x4c>
    5a1c:	14000001 	b	5a20 <entry_75+0x50>
    5a20:	14000001 	b	5a24 <entry_75+0x54>
    5a24:	14000001 	b	5a28 <entry_75+0x58>
    5a28:	14000001 	b	5a2c <entry_75+0x5c>
    5a2c:	14000001 	b	5a30 <entry_75+0x60>
    5a30:	14000001 	b	5a34 <entry_75+0x64>
    5a34:	14000001 	b	5a38 <entry_75+0x68>
    5a38:	14000001 	b	5a3c <entry_75+0x6c>
    5a3c:	14000001 	b	5a40 <entry_75+0x70>
    5a40:	14000001 	b	5a44 <entry_75+0x74>
    5a44:	14000001 	b	5a48 <entry_75+0x78>
    5a48:	14000001 	b	5a4c <entry_75+0x7c>
    5a4c:	14000001 	b	5a50 <entry_75+0x80>
    5a50:	14000001 	b	5a54 <entry_75+0x84>
    5a54:	14000001 	b	5a58 <entry_75+0x88>
    5a58:	14000001 	b	5a5c <entry_75+0x8c>
    5a5c:	14000001 	b	5a60 <entry_75+0x90>
    5a60:	14000001 	b	5a64 <entry_75+0x94>
    5a64:	14000001 	b	5a68 <entry_75+0x98>
    5a68:	14000001 	b	5a6c <entry_75+0x9c>
    5a6c:	14000001 	b	5a70 <entry_75+0xa0>
    5a70:	14000001 	b	5a74 <entry_75+0xa4>
    5a74:	14000001 	b	5a78 <entry_75+0xa8>
    5a78:	14000001 	b	5a7c <entry_75+0xac>
    5a7c:	14000001 	b	5a80 <entry_75+0xb0>
    5a80:	14000001 	b	5a84 <entry_75+0xb4>
    5a84:	14000001 	b	5a88 <entry_75+0xb8>
    5a88:	14000001 	b	5a8c <entry_75+0xbc>
    5a8c:	14000001 	b	5a90 <entry_75+0xc0>
    5a90:	14000001 	b	5a94 <entry_75+0xc4>
    5a94:	14000001 	b	5a98 <entry_75+0xc8>
    5a98:	14000001 	b	5a9c <entry_75+0xcc>
    5a9c:	14000001 	b	5aa0 <entry_75+0xd0>
    5aa0:	14000001 	b	5aa4 <entry_75+0xd4>
    5aa4:	14000001 	b	5aa8 <entry_75+0xd8>
    5aa8:	14000001 	b	5aac <entry_75+0xdc>
    5aac:	14000001 	b	5ab0 <entry_75+0xe0>
    5ab0:	14000001 	b	5ab4 <entry_75+0xe4>
    5ab4:	14000001 	b	5ab8 <entry_75+0xe8>
    5ab8:	14000001 	b	5abc <entry_75+0xec>
    5abc:	14000001 	b	5ac0 <entry_75+0xf0>
    5ac0:	14000001 	b	5ac4 <entry_75+0xf4>
    5ac4:	14000001 	b	5ac8 <entry_75+0xf8>
    5ac8:	14000001 	b	5acc <entry_75+0xfc>
    5acc:	14000001 	b	5ad0 <entry_75+0x100>
    5ad0:	14000001 	b	5ad4 <entry_75+0x104>
    5ad4:	14000001 	b	5ad8 <entry_75+0x108>
    5ad8:	14000001 	b	5adc <entry_75+0x10c>
    5adc:	14000001 	b	5ae0 <entry_75+0x110>
    5ae0:	14000001 	b	5ae4 <entry_75+0x114>
    5ae4:	14000001 	b	5ae8 <entry_75+0x118>
    5ae8:	14000001 	b	5aec <entry_75+0x11c>
    5aec:	14000001 	b	5af0 <entry_75+0x120>
    5af0:	14000001 	b	5af4 <entry_75+0x124>
    5af4:	14000001 	b	5af8 <entry_75+0x128>
    5af8:	14000001 	b	5afc <entry_75+0x12c>
    5afc:	17fff20f 	b	2338 <dummy_done>

0000000000005b00 <entry_76>:
    5b00:	14000001 	b	5b04 <entry_76+0x4>
    5b04:	14000001 	b	5b08 <entry_76+0x8>
    5b08:	14000001 	b	5b0c <entry_76+0xc>
    5b0c:	14000001 	b	5b10 <entry_76+0x10>
    5b10:	14000001 	b	5b14 <entry_76+0x14>
    5b14:	14000001 	b	5b18 <entry_76+0x18>
    5b18:	14000001 	b	5b1c <entry_76+0x1c>
    5b1c:	14000001 	b	5b20 <entry_76+0x20>
    5b20:	14000001 	b	5b24 <entry_76+0x24>
    5b24:	14000001 	b	5b28 <entry_76+0x28>
    5b28:	14000001 	b	5b2c <entry_76+0x2c>
    5b2c:	14000001 	b	5b30 <entry_76+0x30>
    5b30:	14000001 	b	5b34 <entry_76+0x34>
    5b34:	14000001 	b	5b38 <entry_76+0x38>
    5b38:	14000001 	b	5b3c <entry_76+0x3c>
    5b3c:	14000001 	b	5b40 <entry_76+0x40>
    5b40:	14000001 	b	5b44 <entry_76+0x44>
    5b44:	14000001 	b	5b48 <entry_76+0x48>
    5b48:	14000001 	b	5b4c <entry_76+0x4c>
    5b4c:	14000001 	b	5b50 <entry_76+0x50>
    5b50:	14000001 	b	5b54 <entry_76+0x54>
    5b54:	14000001 	b	5b58 <entry_76+0x58>
    5b58:	14000001 	b	5b5c <entry_76+0x5c>
    5b5c:	14000001 	b	5b60 <entry_76+0x60>
    5b60:	14000001 	b	5b64 <entry_76+0x64>
    5b64:	14000001 	b	5b68 <entry_76+0x68>
    5b68:	14000001 	b	5b6c <entry_76+0x6c>
    5b6c:	14000001 	b	5b70 <entry_76+0x70>
    5b70:	14000001 	b	5b74 <entry_76+0x74>
    5b74:	14000001 	b	5b78 <entry_76+0x78>
    5b78:	14000001 	b	5b7c <entry_76+0x7c>
    5b7c:	14000001 	b	5b80 <entry_76+0x80>
    5b80:	14000001 	b	5b84 <entry_76+0x84>
    5b84:	14000001 	b	5b88 <entry_76+0x88>
    5b88:	14000001 	b	5b8c <entry_76+0x8c>
    5b8c:	14000001 	b	5b90 <entry_76+0x90>
    5b90:	14000001 	b	5b94 <entry_76+0x94>
    5b94:	14000001 	b	5b98 <entry_76+0x98>
    5b98:	14000001 	b	5b9c <entry_76+0x9c>
    5b9c:	14000001 	b	5ba0 <entry_76+0xa0>
    5ba0:	14000001 	b	5ba4 <entry_76+0xa4>
    5ba4:	14000001 	b	5ba8 <entry_76+0xa8>
    5ba8:	14000001 	b	5bac <entry_76+0xac>
    5bac:	14000001 	b	5bb0 <entry_76+0xb0>
    5bb0:	14000001 	b	5bb4 <entry_76+0xb4>
    5bb4:	14000001 	b	5bb8 <entry_76+0xb8>
    5bb8:	14000001 	b	5bbc <entry_76+0xbc>
    5bbc:	14000001 	b	5bc0 <entry_76+0xc0>
    5bc0:	14000001 	b	5bc4 <entry_76+0xc4>
    5bc4:	14000001 	b	5bc8 <entry_76+0xc8>
    5bc8:	14000001 	b	5bcc <entry_76+0xcc>
    5bcc:	14000001 	b	5bd0 <entry_76+0xd0>
    5bd0:	14000001 	b	5bd4 <entry_76+0xd4>
    5bd4:	14000001 	b	5bd8 <entry_76+0xd8>
    5bd8:	14000001 	b	5bdc <entry_76+0xdc>
    5bdc:	14000001 	b	5be0 <entry_76+0xe0>
    5be0:	14000001 	b	5be4 <entry_76+0xe4>
    5be4:	14000001 	b	5be8 <entry_76+0xe8>
    5be8:	14000001 	b	5bec <entry_76+0xec>
    5bec:	14000001 	b	5bf0 <entry_76+0xf0>
    5bf0:	14000001 	b	5bf4 <entry_76+0xf4>
    5bf4:	14000001 	b	5bf8 <entry_76+0xf8>
    5bf8:	14000001 	b	5bfc <entry_76+0xfc>
    5bfc:	14000001 	b	5c00 <entry_76+0x100>
    5c00:	14000001 	b	5c04 <entry_76+0x104>
    5c04:	14000001 	b	5c08 <entry_76+0x108>
    5c08:	14000001 	b	5c0c <entry_76+0x10c>
    5c0c:	14000001 	b	5c10 <entry_76+0x110>
    5c10:	14000001 	b	5c14 <entry_76+0x114>
    5c14:	14000001 	b	5c18 <entry_76+0x118>
    5c18:	14000001 	b	5c1c <entry_76+0x11c>
    5c1c:	14000001 	b	5c20 <entry_76+0x120>
    5c20:	14000001 	b	5c24 <entry_76+0x124>
    5c24:	14000001 	b	5c28 <entry_76+0x128>
    5c28:	14000001 	b	5c2c <entry_76+0x12c>
    5c2c:	14000001 	b	5c30 <entry_76+0x130>
    5c30:	17fff1c2 	b	2338 <dummy_done>
    5c34:	d503201f 	nop
    5c38:	d503201f 	nop
    5c3c:	d503201f 	nop

0000000000005c40 <entry_77>:
    5c40:	14000001 	b	5c44 <entry_77+0x4>
    5c44:	14000001 	b	5c48 <entry_77+0x8>
    5c48:	14000001 	b	5c4c <entry_77+0xc>
    5c4c:	14000001 	b	5c50 <entry_77+0x10>
    5c50:	14000001 	b	5c54 <entry_77+0x14>
    5c54:	14000001 	b	5c58 <entry_77+0x18>
    5c58:	14000001 	b	5c5c <entry_77+0x1c>
    5c5c:	14000001 	b	5c60 <entry_77+0x20>
    5c60:	14000001 	b	5c64 <entry_77+0x24>
    5c64:	14000001 	b	5c68 <entry_77+0x28>
    5c68:	14000001 	b	5c6c <entry_77+0x2c>
    5c6c:	14000001 	b	5c70 <entry_77+0x30>
    5c70:	14000001 	b	5c74 <entry_77+0x34>
    5c74:	14000001 	b	5c78 <entry_77+0x38>
    5c78:	14000001 	b	5c7c <entry_77+0x3c>
    5c7c:	14000001 	b	5c80 <entry_77+0x40>
    5c80:	14000001 	b	5c84 <entry_77+0x44>
    5c84:	14000001 	b	5c88 <entry_77+0x48>
    5c88:	14000001 	b	5c8c <entry_77+0x4c>
    5c8c:	14000001 	b	5c90 <entry_77+0x50>
    5c90:	14000001 	b	5c94 <entry_77+0x54>
    5c94:	14000001 	b	5c98 <entry_77+0x58>
    5c98:	14000001 	b	5c9c <entry_77+0x5c>
    5c9c:	14000001 	b	5ca0 <entry_77+0x60>
    5ca0:	14000001 	b	5ca4 <entry_77+0x64>
    5ca4:	14000001 	b	5ca8 <entry_77+0x68>
    5ca8:	14000001 	b	5cac <entry_77+0x6c>
    5cac:	14000001 	b	5cb0 <entry_77+0x70>
    5cb0:	14000001 	b	5cb4 <entry_77+0x74>
    5cb4:	14000001 	b	5cb8 <entry_77+0x78>
    5cb8:	14000001 	b	5cbc <entry_77+0x7c>
    5cbc:	14000001 	b	5cc0 <entry_77+0x80>
    5cc0:	14000001 	b	5cc4 <entry_77+0x84>
    5cc4:	14000001 	b	5cc8 <entry_77+0x88>
    5cc8:	14000001 	b	5ccc <entry_77+0x8c>
    5ccc:	14000001 	b	5cd0 <entry_77+0x90>
    5cd0:	14000001 	b	5cd4 <entry_77+0x94>
    5cd4:	14000001 	b	5cd8 <entry_77+0x98>
    5cd8:	14000001 	b	5cdc <entry_77+0x9c>
    5cdc:	14000001 	b	5ce0 <entry_77+0xa0>
    5ce0:	14000001 	b	5ce4 <entry_77+0xa4>
    5ce4:	14000001 	b	5ce8 <entry_77+0xa8>
    5ce8:	14000001 	b	5cec <entry_77+0xac>
    5cec:	14000001 	b	5cf0 <entry_77+0xb0>
    5cf0:	14000001 	b	5cf4 <entry_77+0xb4>
    5cf4:	14000001 	b	5cf8 <entry_77+0xb8>
    5cf8:	14000001 	b	5cfc <entry_77+0xbc>
    5cfc:	14000001 	b	5d00 <entry_77+0xc0>
    5d00:	14000001 	b	5d04 <entry_77+0xc4>
    5d04:	14000001 	b	5d08 <entry_77+0xc8>
    5d08:	14000001 	b	5d0c <entry_77+0xcc>
    5d0c:	14000001 	b	5d10 <entry_77+0xd0>
    5d10:	14000001 	b	5d14 <entry_77+0xd4>
    5d14:	14000001 	b	5d18 <entry_77+0xd8>
    5d18:	14000001 	b	5d1c <entry_77+0xdc>
    5d1c:	14000001 	b	5d20 <entry_77+0xe0>
    5d20:	14000001 	b	5d24 <entry_77+0xe4>
    5d24:	14000001 	b	5d28 <entry_77+0xe8>
    5d28:	14000001 	b	5d2c <entry_77+0xec>
    5d2c:	14000001 	b	5d30 <entry_77+0xf0>
    5d30:	14000001 	b	5d34 <entry_77+0xf4>
    5d34:	14000001 	b	5d38 <entry_77+0xf8>
    5d38:	14000001 	b	5d3c <entry_77+0xfc>
    5d3c:	14000001 	b	5d40 <entry_77+0x100>
    5d40:	14000001 	b	5d44 <entry_77+0x104>
    5d44:	14000001 	b	5d48 <entry_77+0x108>
    5d48:	14000001 	b	5d4c <entry_77+0x10c>
    5d4c:	14000001 	b	5d50 <entry_77+0x110>
    5d50:	14000001 	b	5d54 <entry_77+0x114>
    5d54:	14000001 	b	5d58 <entry_77+0x118>
    5d58:	14000001 	b	5d5c <entry_77+0x11c>
    5d5c:	14000001 	b	5d60 <entry_77+0x120>
    5d60:	14000001 	b	5d64 <entry_77+0x124>
    5d64:	14000001 	b	5d68 <entry_77+0x128>
    5d68:	14000001 	b	5d6c <entry_77+0x12c>
    5d6c:	14000001 	b	5d70 <entry_77+0x130>
    5d70:	14000001 	b	5d74 <entry_77+0x134>
    5d74:	17fff171 	b	2338 <dummy_done>
    5d78:	d503201f 	nop
    5d7c:	d503201f 	nop

0000000000005d80 <entry_78>:
    5d80:	14000001 	b	5d84 <entry_78+0x4>
    5d84:	14000001 	b	5d88 <entry_78+0x8>
    5d88:	14000001 	b	5d8c <entry_78+0xc>
    5d8c:	14000001 	b	5d90 <entry_78+0x10>
    5d90:	14000001 	b	5d94 <entry_78+0x14>
    5d94:	14000001 	b	5d98 <entry_78+0x18>
    5d98:	14000001 	b	5d9c <entry_78+0x1c>
    5d9c:	14000001 	b	5da0 <entry_78+0x20>
    5da0:	14000001 	b	5da4 <entry_78+0x24>
    5da4:	14000001 	b	5da8 <entry_78+0x28>
    5da8:	14000001 	b	5dac <entry_78+0x2c>
    5dac:	14000001 	b	5db0 <entry_78+0x30>
    5db0:	14000001 	b	5db4 <entry_78+0x34>
    5db4:	14000001 	b	5db8 <entry_78+0x38>
    5db8:	14000001 	b	5dbc <entry_78+0x3c>
    5dbc:	14000001 	b	5dc0 <entry_78+0x40>
    5dc0:	14000001 	b	5dc4 <entry_78+0x44>
    5dc4:	14000001 	b	5dc8 <entry_78+0x48>
    5dc8:	14000001 	b	5dcc <entry_78+0x4c>
    5dcc:	14000001 	b	5dd0 <entry_78+0x50>
    5dd0:	14000001 	b	5dd4 <entry_78+0x54>
    5dd4:	14000001 	b	5dd8 <entry_78+0x58>
    5dd8:	14000001 	b	5ddc <entry_78+0x5c>
    5ddc:	14000001 	b	5de0 <entry_78+0x60>
    5de0:	14000001 	b	5de4 <entry_78+0x64>
    5de4:	14000001 	b	5de8 <entry_78+0x68>
    5de8:	14000001 	b	5dec <entry_78+0x6c>
    5dec:	14000001 	b	5df0 <entry_78+0x70>
    5df0:	14000001 	b	5df4 <entry_78+0x74>
    5df4:	14000001 	b	5df8 <entry_78+0x78>
    5df8:	14000001 	b	5dfc <entry_78+0x7c>
    5dfc:	14000001 	b	5e00 <entry_78+0x80>
    5e00:	14000001 	b	5e04 <entry_78+0x84>
    5e04:	14000001 	b	5e08 <entry_78+0x88>
    5e08:	14000001 	b	5e0c <entry_78+0x8c>
    5e0c:	14000001 	b	5e10 <entry_78+0x90>
    5e10:	14000001 	b	5e14 <entry_78+0x94>
    5e14:	14000001 	b	5e18 <entry_78+0x98>
    5e18:	14000001 	b	5e1c <entry_78+0x9c>
    5e1c:	14000001 	b	5e20 <entry_78+0xa0>
    5e20:	14000001 	b	5e24 <entry_78+0xa4>
    5e24:	14000001 	b	5e28 <entry_78+0xa8>
    5e28:	14000001 	b	5e2c <entry_78+0xac>
    5e2c:	14000001 	b	5e30 <entry_78+0xb0>
    5e30:	14000001 	b	5e34 <entry_78+0xb4>
    5e34:	14000001 	b	5e38 <entry_78+0xb8>
    5e38:	14000001 	b	5e3c <entry_78+0xbc>
    5e3c:	14000001 	b	5e40 <entry_78+0xc0>
    5e40:	14000001 	b	5e44 <entry_78+0xc4>
    5e44:	14000001 	b	5e48 <entry_78+0xc8>
    5e48:	14000001 	b	5e4c <entry_78+0xcc>
    5e4c:	14000001 	b	5e50 <entry_78+0xd0>
    5e50:	14000001 	b	5e54 <entry_78+0xd4>
    5e54:	14000001 	b	5e58 <entry_78+0xd8>
    5e58:	14000001 	b	5e5c <entry_78+0xdc>
    5e5c:	14000001 	b	5e60 <entry_78+0xe0>
    5e60:	14000001 	b	5e64 <entry_78+0xe4>
    5e64:	14000001 	b	5e68 <entry_78+0xe8>
    5e68:	14000001 	b	5e6c <entry_78+0xec>
    5e6c:	14000001 	b	5e70 <entry_78+0xf0>
    5e70:	14000001 	b	5e74 <entry_78+0xf4>
    5e74:	14000001 	b	5e78 <entry_78+0xf8>
    5e78:	14000001 	b	5e7c <entry_78+0xfc>
    5e7c:	14000001 	b	5e80 <entry_78+0x100>
    5e80:	14000001 	b	5e84 <entry_78+0x104>
    5e84:	14000001 	b	5e88 <entry_78+0x108>
    5e88:	14000001 	b	5e8c <entry_78+0x10c>
    5e8c:	14000001 	b	5e90 <entry_78+0x110>
    5e90:	14000001 	b	5e94 <entry_78+0x114>
    5e94:	14000001 	b	5e98 <entry_78+0x118>
    5e98:	14000001 	b	5e9c <entry_78+0x11c>
    5e9c:	14000001 	b	5ea0 <entry_78+0x120>
    5ea0:	14000001 	b	5ea4 <entry_78+0x124>
    5ea4:	14000001 	b	5ea8 <entry_78+0x128>
    5ea8:	14000001 	b	5eac <entry_78+0x12c>
    5eac:	14000001 	b	5eb0 <entry_78+0x130>
    5eb0:	14000001 	b	5eb4 <entry_78+0x134>
    5eb4:	14000001 	b	5eb8 <entry_78+0x138>
    5eb8:	17fff120 	b	2338 <dummy_done>
    5ebc:	d503201f 	nop

0000000000005ec0 <entry_79>:
    5ec0:	14000001 	b	5ec4 <entry_79+0x4>
    5ec4:	14000001 	b	5ec8 <entry_79+0x8>
    5ec8:	14000001 	b	5ecc <entry_79+0xc>
    5ecc:	14000001 	b	5ed0 <entry_79+0x10>
    5ed0:	14000001 	b	5ed4 <entry_79+0x14>
    5ed4:	14000001 	b	5ed8 <entry_79+0x18>
    5ed8:	14000001 	b	5edc <entry_79+0x1c>
    5edc:	14000001 	b	5ee0 <entry_79+0x20>
    5ee0:	14000001 	b	5ee4 <entry_79+0x24>
    5ee4:	14000001 	b	5ee8 <entry_79+0x28>
    5ee8:	14000001 	b	5eec <entry_79+0x2c>
    5eec:	14000001 	b	5ef0 <entry_79+0x30>
    5ef0:	14000001 	b	5ef4 <entry_79+0x34>
    5ef4:	14000001 	b	5ef8 <entry_79+0x38>
    5ef8:	14000001 	b	5efc <entry_79+0x3c>
    5efc:	14000001 	b	5f00 <entry_79+0x40>
    5f00:	14000001 	b	5f04 <entry_79+0x44>
    5f04:	14000001 	b	5f08 <entry_79+0x48>
    5f08:	14000001 	b	5f0c <entry_79+0x4c>
    5f0c:	14000001 	b	5f10 <entry_79+0x50>
    5f10:	14000001 	b	5f14 <entry_79+0x54>
    5f14:	14000001 	b	5f18 <entry_79+0x58>
    5f18:	14000001 	b	5f1c <entry_79+0x5c>
    5f1c:	14000001 	b	5f20 <entry_79+0x60>
    5f20:	14000001 	b	5f24 <entry_79+0x64>
    5f24:	14000001 	b	5f28 <entry_79+0x68>
    5f28:	14000001 	b	5f2c <entry_79+0x6c>
    5f2c:	14000001 	b	5f30 <entry_79+0x70>
    5f30:	14000001 	b	5f34 <entry_79+0x74>
    5f34:	14000001 	b	5f38 <entry_79+0x78>
    5f38:	14000001 	b	5f3c <entry_79+0x7c>
    5f3c:	14000001 	b	5f40 <entry_79+0x80>
    5f40:	14000001 	b	5f44 <entry_79+0x84>
    5f44:	14000001 	b	5f48 <entry_79+0x88>
    5f48:	14000001 	b	5f4c <entry_79+0x8c>
    5f4c:	14000001 	b	5f50 <entry_79+0x90>
    5f50:	14000001 	b	5f54 <entry_79+0x94>
    5f54:	14000001 	b	5f58 <entry_79+0x98>
    5f58:	14000001 	b	5f5c <entry_79+0x9c>
    5f5c:	14000001 	b	5f60 <entry_79+0xa0>
    5f60:	14000001 	b	5f64 <entry_79+0xa4>
    5f64:	14000001 	b	5f68 <entry_79+0xa8>
    5f68:	14000001 	b	5f6c <entry_79+0xac>
    5f6c:	14000001 	b	5f70 <entry_79+0xb0>
    5f70:	14000001 	b	5f74 <entry_79+0xb4>
    5f74:	14000001 	b	5f78 <entry_79+0xb8>
    5f78:	14000001 	b	5f7c <entry_79+0xbc>
    5f7c:	14000001 	b	5f80 <entry_79+0xc0>
    5f80:	14000001 	b	5f84 <entry_79+0xc4>
    5f84:	14000001 	b	5f88 <entry_79+0xc8>
    5f88:	14000001 	b	5f8c <entry_79+0xcc>
    5f8c:	14000001 	b	5f90 <entry_79+0xd0>
    5f90:	14000001 	b	5f94 <entry_79+0xd4>
    5f94:	14000001 	b	5f98 <entry_79+0xd8>
    5f98:	14000001 	b	5f9c <entry_79+0xdc>
    5f9c:	14000001 	b	5fa0 <entry_79+0xe0>
    5fa0:	14000001 	b	5fa4 <entry_79+0xe4>
    5fa4:	14000001 	b	5fa8 <entry_79+0xe8>
    5fa8:	14000001 	b	5fac <entry_79+0xec>
    5fac:	14000001 	b	5fb0 <entry_79+0xf0>
    5fb0:	14000001 	b	5fb4 <entry_79+0xf4>
    5fb4:	14000001 	b	5fb8 <entry_79+0xf8>
    5fb8:	14000001 	b	5fbc <entry_79+0xfc>
    5fbc:	14000001 	b	5fc0 <entry_79+0x100>
    5fc0:	14000001 	b	5fc4 <entry_79+0x104>
    5fc4:	14000001 	b	5fc8 <entry_79+0x108>
    5fc8:	14000001 	b	5fcc <entry_79+0x10c>
    5fcc:	14000001 	b	5fd0 <entry_79+0x110>
    5fd0:	14000001 	b	5fd4 <entry_79+0x114>
    5fd4:	14000001 	b	5fd8 <entry_79+0x118>
    5fd8:	14000001 	b	5fdc <entry_79+0x11c>
    5fdc:	14000001 	b	5fe0 <entry_79+0x120>
    5fe0:	14000001 	b	5fe4 <entry_79+0x124>
    5fe4:	14000001 	b	5fe8 <entry_79+0x128>
    5fe8:	14000001 	b	5fec <entry_79+0x12c>
    5fec:	14000001 	b	5ff0 <entry_79+0x130>
    5ff0:	14000001 	b	5ff4 <entry_79+0x134>
    5ff4:	14000001 	b	5ff8 <entry_79+0x138>
    5ff8:	14000001 	b	5ffc <entry_79+0x13c>
    5ffc:	17fff0cf 	b	2338 <dummy_done>

0000000000006000 <entry_80>:
    6000:	14000001 	b	6004 <entry_80+0x4>
    6004:	14000001 	b	6008 <entry_80+0x8>
    6008:	14000001 	b	600c <entry_80+0xc>
    600c:	14000001 	b	6010 <entry_80+0x10>
    6010:	14000001 	b	6014 <entry_80+0x14>
    6014:	14000001 	b	6018 <entry_80+0x18>
    6018:	14000001 	b	601c <entry_80+0x1c>
    601c:	14000001 	b	6020 <entry_80+0x20>
    6020:	14000001 	b	6024 <entry_80+0x24>
    6024:	14000001 	b	6028 <entry_80+0x28>
    6028:	14000001 	b	602c <entry_80+0x2c>
    602c:	14000001 	b	6030 <entry_80+0x30>
    6030:	14000001 	b	6034 <entry_80+0x34>
    6034:	14000001 	b	6038 <entry_80+0x38>
    6038:	14000001 	b	603c <entry_80+0x3c>
    603c:	14000001 	b	6040 <entry_80+0x40>
    6040:	14000001 	b	6044 <entry_80+0x44>
    6044:	14000001 	b	6048 <entry_80+0x48>
    6048:	14000001 	b	604c <entry_80+0x4c>
    604c:	14000001 	b	6050 <entry_80+0x50>
    6050:	14000001 	b	6054 <entry_80+0x54>
    6054:	14000001 	b	6058 <entry_80+0x58>
    6058:	14000001 	b	605c <entry_80+0x5c>
    605c:	14000001 	b	6060 <entry_80+0x60>
    6060:	14000001 	b	6064 <entry_80+0x64>
    6064:	14000001 	b	6068 <entry_80+0x68>
    6068:	14000001 	b	606c <entry_80+0x6c>
    606c:	14000001 	b	6070 <entry_80+0x70>
    6070:	14000001 	b	6074 <entry_80+0x74>
    6074:	14000001 	b	6078 <entry_80+0x78>
    6078:	14000001 	b	607c <entry_80+0x7c>
    607c:	14000001 	b	6080 <entry_80+0x80>
    6080:	14000001 	b	6084 <entry_80+0x84>
    6084:	14000001 	b	6088 <entry_80+0x88>
    6088:	14000001 	b	608c <entry_80+0x8c>
    608c:	14000001 	b	6090 <entry_80+0x90>
    6090:	14000001 	b	6094 <entry_80+0x94>
    6094:	14000001 	b	6098 <entry_80+0x98>
    6098:	14000001 	b	609c <entry_80+0x9c>
    609c:	14000001 	b	60a0 <entry_80+0xa0>
    60a0:	14000001 	b	60a4 <entry_80+0xa4>
    60a4:	14000001 	b	60a8 <entry_80+0xa8>
    60a8:	14000001 	b	60ac <entry_80+0xac>
    60ac:	14000001 	b	60b0 <entry_80+0xb0>
    60b0:	14000001 	b	60b4 <entry_80+0xb4>
    60b4:	14000001 	b	60b8 <entry_80+0xb8>
    60b8:	14000001 	b	60bc <entry_80+0xbc>
    60bc:	14000001 	b	60c0 <entry_80+0xc0>
    60c0:	14000001 	b	60c4 <entry_80+0xc4>
    60c4:	14000001 	b	60c8 <entry_80+0xc8>
    60c8:	14000001 	b	60cc <entry_80+0xcc>
    60cc:	14000001 	b	60d0 <entry_80+0xd0>
    60d0:	14000001 	b	60d4 <entry_80+0xd4>
    60d4:	14000001 	b	60d8 <entry_80+0xd8>
    60d8:	14000001 	b	60dc <entry_80+0xdc>
    60dc:	14000001 	b	60e0 <entry_80+0xe0>
    60e0:	14000001 	b	60e4 <entry_80+0xe4>
    60e4:	14000001 	b	60e8 <entry_80+0xe8>
    60e8:	14000001 	b	60ec <entry_80+0xec>
    60ec:	14000001 	b	60f0 <entry_80+0xf0>
    60f0:	14000001 	b	60f4 <entry_80+0xf4>
    60f4:	14000001 	b	60f8 <entry_80+0xf8>
    60f8:	14000001 	b	60fc <entry_80+0xfc>
    60fc:	14000001 	b	6100 <entry_80+0x100>
    6100:	14000001 	b	6104 <entry_80+0x104>
    6104:	14000001 	b	6108 <entry_80+0x108>
    6108:	14000001 	b	610c <entry_80+0x10c>
    610c:	14000001 	b	6110 <entry_80+0x110>
    6110:	14000001 	b	6114 <entry_80+0x114>
    6114:	14000001 	b	6118 <entry_80+0x118>
    6118:	14000001 	b	611c <entry_80+0x11c>
    611c:	14000001 	b	6120 <entry_80+0x120>
    6120:	14000001 	b	6124 <entry_80+0x124>
    6124:	14000001 	b	6128 <entry_80+0x128>
    6128:	14000001 	b	612c <entry_80+0x12c>
    612c:	14000001 	b	6130 <entry_80+0x130>
    6130:	14000001 	b	6134 <entry_80+0x134>
    6134:	14000001 	b	6138 <entry_80+0x138>
    6138:	14000001 	b	613c <entry_80+0x13c>
    613c:	14000001 	b	6140 <entry_80+0x140>
    6140:	17fff07e 	b	2338 <dummy_done>
    6144:	d503201f 	nop
    6148:	d503201f 	nop
    614c:	d503201f 	nop

0000000000006150 <entry_81>:
    6150:	14000001 	b	6154 <entry_81+0x4>
    6154:	14000001 	b	6158 <entry_81+0x8>
    6158:	14000001 	b	615c <entry_81+0xc>
    615c:	14000001 	b	6160 <entry_81+0x10>
    6160:	14000001 	b	6164 <entry_81+0x14>
    6164:	14000001 	b	6168 <entry_81+0x18>
    6168:	14000001 	b	616c <entry_81+0x1c>
    616c:	14000001 	b	6170 <entry_81+0x20>
    6170:	14000001 	b	6174 <entry_81+0x24>
    6174:	14000001 	b	6178 <entry_81+0x28>
    6178:	14000001 	b	617c <entry_81+0x2c>
    617c:	14000001 	b	6180 <entry_81+0x30>
    6180:	14000001 	b	6184 <entry_81+0x34>
    6184:	14000001 	b	6188 <entry_81+0x38>
    6188:	14000001 	b	618c <entry_81+0x3c>
    618c:	14000001 	b	6190 <entry_81+0x40>
    6190:	14000001 	b	6194 <entry_81+0x44>
    6194:	14000001 	b	6198 <entry_81+0x48>
    6198:	14000001 	b	619c <entry_81+0x4c>
    619c:	14000001 	b	61a0 <entry_81+0x50>
    61a0:	14000001 	b	61a4 <entry_81+0x54>
    61a4:	14000001 	b	61a8 <entry_81+0x58>
    61a8:	14000001 	b	61ac <entry_81+0x5c>
    61ac:	14000001 	b	61b0 <entry_81+0x60>
    61b0:	14000001 	b	61b4 <entry_81+0x64>
    61b4:	14000001 	b	61b8 <entry_81+0x68>
    61b8:	14000001 	b	61bc <entry_81+0x6c>
    61bc:	14000001 	b	61c0 <entry_81+0x70>
    61c0:	14000001 	b	61c4 <entry_81+0x74>
    61c4:	14000001 	b	61c8 <entry_81+0x78>
    61c8:	14000001 	b	61cc <entry_81+0x7c>
    61cc:	14000001 	b	61d0 <entry_81+0x80>
    61d0:	14000001 	b	61d4 <entry_81+0x84>
    61d4:	14000001 	b	61d8 <entry_81+0x88>
    61d8:	14000001 	b	61dc <entry_81+0x8c>
    61dc:	14000001 	b	61e0 <entry_81+0x90>
    61e0:	14000001 	b	61e4 <entry_81+0x94>
    61e4:	14000001 	b	61e8 <entry_81+0x98>
    61e8:	14000001 	b	61ec <entry_81+0x9c>
    61ec:	14000001 	b	61f0 <entry_81+0xa0>
    61f0:	14000001 	b	61f4 <entry_81+0xa4>
    61f4:	14000001 	b	61f8 <entry_81+0xa8>
    61f8:	14000001 	b	61fc <entry_81+0xac>
    61fc:	14000001 	b	6200 <entry_81+0xb0>
    6200:	14000001 	b	6204 <entry_81+0xb4>
    6204:	14000001 	b	6208 <entry_81+0xb8>
    6208:	14000001 	b	620c <entry_81+0xbc>
    620c:	14000001 	b	6210 <entry_81+0xc0>
    6210:	14000001 	b	6214 <entry_81+0xc4>
    6214:	14000001 	b	6218 <entry_81+0xc8>
    6218:	14000001 	b	621c <entry_81+0xcc>
    621c:	14000001 	b	6220 <entry_81+0xd0>
    6220:	14000001 	b	6224 <entry_81+0xd4>
    6224:	14000001 	b	6228 <entry_81+0xd8>
    6228:	14000001 	b	622c <entry_81+0xdc>
    622c:	14000001 	b	6230 <entry_81+0xe0>
    6230:	14000001 	b	6234 <entry_81+0xe4>
    6234:	14000001 	b	6238 <entry_81+0xe8>
    6238:	14000001 	b	623c <entry_81+0xec>
    623c:	14000001 	b	6240 <entry_81+0xf0>
    6240:	14000001 	b	6244 <entry_81+0xf4>
    6244:	14000001 	b	6248 <entry_81+0xf8>
    6248:	14000001 	b	624c <entry_81+0xfc>
    624c:	14000001 	b	6250 <entry_81+0x100>
    6250:	14000001 	b	6254 <entry_81+0x104>
    6254:	14000001 	b	6258 <entry_81+0x108>
    6258:	14000001 	b	625c <entry_81+0x10c>
    625c:	14000001 	b	6260 <entry_81+0x110>
    6260:	14000001 	b	6264 <entry_81+0x114>
    6264:	14000001 	b	6268 <entry_81+0x118>
    6268:	14000001 	b	626c <entry_81+0x11c>
    626c:	14000001 	b	6270 <entry_81+0x120>
    6270:	14000001 	b	6274 <entry_81+0x124>
    6274:	14000001 	b	6278 <entry_81+0x128>
    6278:	14000001 	b	627c <entry_81+0x12c>
    627c:	14000001 	b	6280 <entry_81+0x130>
    6280:	14000001 	b	6284 <entry_81+0x134>
    6284:	14000001 	b	6288 <entry_81+0x138>
    6288:	14000001 	b	628c <entry_81+0x13c>
    628c:	14000001 	b	6290 <entry_81+0x140>
    6290:	14000001 	b	6294 <entry_81+0x144>
    6294:	17fff029 	b	2338 <dummy_done>
    6298:	d503201f 	nop
    629c:	d503201f 	nop

00000000000062a0 <entry_82>:
    62a0:	14000001 	b	62a4 <entry_82+0x4>
    62a4:	14000001 	b	62a8 <entry_82+0x8>
    62a8:	14000001 	b	62ac <entry_82+0xc>
    62ac:	14000001 	b	62b0 <entry_82+0x10>
    62b0:	14000001 	b	62b4 <entry_82+0x14>
    62b4:	14000001 	b	62b8 <entry_82+0x18>
    62b8:	14000001 	b	62bc <entry_82+0x1c>
    62bc:	14000001 	b	62c0 <entry_82+0x20>
    62c0:	14000001 	b	62c4 <entry_82+0x24>
    62c4:	14000001 	b	62c8 <entry_82+0x28>
    62c8:	14000001 	b	62cc <entry_82+0x2c>
    62cc:	14000001 	b	62d0 <entry_82+0x30>
    62d0:	14000001 	b	62d4 <entry_82+0x34>
    62d4:	14000001 	b	62d8 <entry_82+0x38>
    62d8:	14000001 	b	62dc <entry_82+0x3c>
    62dc:	14000001 	b	62e0 <entry_82+0x40>
    62e0:	14000001 	b	62e4 <entry_82+0x44>
    62e4:	14000001 	b	62e8 <entry_82+0x48>
    62e8:	14000001 	b	62ec <entry_82+0x4c>
    62ec:	14000001 	b	62f0 <entry_82+0x50>
    62f0:	14000001 	b	62f4 <entry_82+0x54>
    62f4:	14000001 	b	62f8 <entry_82+0x58>
    62f8:	14000001 	b	62fc <entry_82+0x5c>
    62fc:	14000001 	b	6300 <entry_82+0x60>
    6300:	14000001 	b	6304 <entry_82+0x64>
    6304:	14000001 	b	6308 <entry_82+0x68>
    6308:	14000001 	b	630c <entry_82+0x6c>
    630c:	14000001 	b	6310 <entry_82+0x70>
    6310:	14000001 	b	6314 <entry_82+0x74>
    6314:	14000001 	b	6318 <entry_82+0x78>
    6318:	14000001 	b	631c <entry_82+0x7c>
    631c:	14000001 	b	6320 <entry_82+0x80>
    6320:	14000001 	b	6324 <entry_82+0x84>
    6324:	14000001 	b	6328 <entry_82+0x88>
    6328:	14000001 	b	632c <entry_82+0x8c>
    632c:	14000001 	b	6330 <entry_82+0x90>
    6330:	14000001 	b	6334 <entry_82+0x94>
    6334:	14000001 	b	6338 <entry_82+0x98>
    6338:	14000001 	b	633c <entry_82+0x9c>
    633c:	14000001 	b	6340 <entry_82+0xa0>
    6340:	14000001 	b	6344 <entry_82+0xa4>
    6344:	14000001 	b	6348 <entry_82+0xa8>
    6348:	14000001 	b	634c <entry_82+0xac>
    634c:	14000001 	b	6350 <entry_82+0xb0>
    6350:	14000001 	b	6354 <entry_82+0xb4>
    6354:	14000001 	b	6358 <entry_82+0xb8>
    6358:	14000001 	b	635c <entry_82+0xbc>
    635c:	14000001 	b	6360 <entry_82+0xc0>
    6360:	14000001 	b	6364 <entry_82+0xc4>
    6364:	14000001 	b	6368 <entry_82+0xc8>
    6368:	14000001 	b	636c <entry_82+0xcc>
    636c:	14000001 	b	6370 <entry_82+0xd0>
    6370:	14000001 	b	6374 <entry_82+0xd4>
    6374:	14000001 	b	6378 <entry_82+0xd8>
    6378:	14000001 	b	637c <entry_82+0xdc>
    637c:	14000001 	b	6380 <entry_82+0xe0>
    6380:	14000001 	b	6384 <entry_82+0xe4>
    6384:	14000001 	b	6388 <entry_82+0xe8>
    6388:	14000001 	b	638c <entry_82+0xec>
    638c:	14000001 	b	6390 <entry_82+0xf0>
    6390:	14000001 	b	6394 <entry_82+0xf4>
    6394:	14000001 	b	6398 <entry_82+0xf8>
    6398:	14000001 	b	639c <entry_82+0xfc>
    639c:	14000001 	b	63a0 <entry_82+0x100>
    63a0:	14000001 	b	63a4 <entry_82+0x104>
    63a4:	14000001 	b	63a8 <entry_82+0x108>
    63a8:	14000001 	b	63ac <entry_82+0x10c>
    63ac:	14000001 	b	63b0 <entry_82+0x110>
    63b0:	14000001 	b	63b4 <entry_82+0x114>
    63b4:	14000001 	b	63b8 <entry_82+0x118>
    63b8:	14000001 	b	63bc <entry_82+0x11c>
    63bc:	14000001 	b	63c0 <entry_82+0x120>
    63c0:	14000001 	b	63c4 <entry_82+0x124>
    63c4:	14000001 	b	63c8 <entry_82+0x128>
    63c8:	14000001 	b	63cc <entry_82+0x12c>
    63cc:	14000001 	b	63d0 <entry_82+0x130>
    63d0:	14000001 	b	63d4 <entry_82+0x134>
    63d4:	14000001 	b	63d8 <entry_82+0x138>
    63d8:	14000001 	b	63dc <entry_82+0x13c>
    63dc:	14000001 	b	63e0 <entry_82+0x140>
    63e0:	14000001 	b	63e4 <entry_82+0x144>
    63e4:	14000001 	b	63e8 <entry_82+0x148>
    63e8:	17ffefd4 	b	2338 <dummy_done>
    63ec:	d503201f 	nop

00000000000063f0 <entry_83>:
    63f0:	14000001 	b	63f4 <entry_83+0x4>
    63f4:	14000001 	b	63f8 <entry_83+0x8>
    63f8:	14000001 	b	63fc <entry_83+0xc>
    63fc:	14000001 	b	6400 <entry_83+0x10>
    6400:	14000001 	b	6404 <entry_83+0x14>
    6404:	14000001 	b	6408 <entry_83+0x18>
    6408:	14000001 	b	640c <entry_83+0x1c>
    640c:	14000001 	b	6410 <entry_83+0x20>
    6410:	14000001 	b	6414 <entry_83+0x24>
    6414:	14000001 	b	6418 <entry_83+0x28>
    6418:	14000001 	b	641c <entry_83+0x2c>
    641c:	14000001 	b	6420 <entry_83+0x30>
    6420:	14000001 	b	6424 <entry_83+0x34>
    6424:	14000001 	b	6428 <entry_83+0x38>
    6428:	14000001 	b	642c <entry_83+0x3c>
    642c:	14000001 	b	6430 <entry_83+0x40>
    6430:	14000001 	b	6434 <entry_83+0x44>
    6434:	14000001 	b	6438 <entry_83+0x48>
    6438:	14000001 	b	643c <entry_83+0x4c>
    643c:	14000001 	b	6440 <entry_83+0x50>
    6440:	14000001 	b	6444 <entry_83+0x54>
    6444:	14000001 	b	6448 <entry_83+0x58>
    6448:	14000001 	b	644c <entry_83+0x5c>
    644c:	14000001 	b	6450 <entry_83+0x60>
    6450:	14000001 	b	6454 <entry_83+0x64>
    6454:	14000001 	b	6458 <entry_83+0x68>
    6458:	14000001 	b	645c <entry_83+0x6c>
    645c:	14000001 	b	6460 <entry_83+0x70>
    6460:	14000001 	b	6464 <entry_83+0x74>
    6464:	14000001 	b	6468 <entry_83+0x78>
    6468:	14000001 	b	646c <entry_83+0x7c>
    646c:	14000001 	b	6470 <entry_83+0x80>
    6470:	14000001 	b	6474 <entry_83+0x84>
    6474:	14000001 	b	6478 <entry_83+0x88>
    6478:	14000001 	b	647c <entry_83+0x8c>
    647c:	14000001 	b	6480 <entry_83+0x90>
    6480:	14000001 	b	6484 <entry_83+0x94>
    6484:	14000001 	b	6488 <entry_83+0x98>
    6488:	14000001 	b	648c <entry_83+0x9c>
    648c:	14000001 	b	6490 <entry_83+0xa0>
    6490:	14000001 	b	6494 <entry_83+0xa4>
    6494:	14000001 	b	6498 <entry_83+0xa8>
    6498:	14000001 	b	649c <entry_83+0xac>
    649c:	14000001 	b	64a0 <entry_83+0xb0>
    64a0:	14000001 	b	64a4 <entry_83+0xb4>
    64a4:	14000001 	b	64a8 <entry_83+0xb8>
    64a8:	14000001 	b	64ac <entry_83+0xbc>
    64ac:	14000001 	b	64b0 <entry_83+0xc0>
    64b0:	14000001 	b	64b4 <entry_83+0xc4>
    64b4:	14000001 	b	64b8 <entry_83+0xc8>
    64b8:	14000001 	b	64bc <entry_83+0xcc>
    64bc:	14000001 	b	64c0 <entry_83+0xd0>
    64c0:	14000001 	b	64c4 <entry_83+0xd4>
    64c4:	14000001 	b	64c8 <entry_83+0xd8>
    64c8:	14000001 	b	64cc <entry_83+0xdc>
    64cc:	14000001 	b	64d0 <entry_83+0xe0>
    64d0:	14000001 	b	64d4 <entry_83+0xe4>
    64d4:	14000001 	b	64d8 <entry_83+0xe8>
    64d8:	14000001 	b	64dc <entry_83+0xec>
    64dc:	14000001 	b	64e0 <entry_83+0xf0>
    64e0:	14000001 	b	64e4 <entry_83+0xf4>
    64e4:	14000001 	b	64e8 <entry_83+0xf8>
    64e8:	14000001 	b	64ec <entry_83+0xfc>
    64ec:	14000001 	b	64f0 <entry_83+0x100>
    64f0:	14000001 	b	64f4 <entry_83+0x104>
    64f4:	14000001 	b	64f8 <entry_83+0x108>
    64f8:	14000001 	b	64fc <entry_83+0x10c>
    64fc:	14000001 	b	6500 <entry_83+0x110>
    6500:	14000001 	b	6504 <entry_83+0x114>
    6504:	14000001 	b	6508 <entry_83+0x118>
    6508:	14000001 	b	650c <entry_83+0x11c>
    650c:	14000001 	b	6510 <entry_83+0x120>
    6510:	14000001 	b	6514 <entry_83+0x124>
    6514:	14000001 	b	6518 <entry_83+0x128>
    6518:	14000001 	b	651c <entry_83+0x12c>
    651c:	14000001 	b	6520 <entry_83+0x130>
    6520:	14000001 	b	6524 <entry_83+0x134>
    6524:	14000001 	b	6528 <entry_83+0x138>
    6528:	14000001 	b	652c <entry_83+0x13c>
    652c:	14000001 	b	6530 <entry_83+0x140>
    6530:	14000001 	b	6534 <entry_83+0x144>
    6534:	14000001 	b	6538 <entry_83+0x148>
    6538:	14000001 	b	653c <entry_83+0x14c>
    653c:	17ffef7f 	b	2338 <dummy_done>

0000000000006540 <entry_84>:
    6540:	14000001 	b	6544 <entry_84+0x4>
    6544:	14000001 	b	6548 <entry_84+0x8>
    6548:	14000001 	b	654c <entry_84+0xc>
    654c:	14000001 	b	6550 <entry_84+0x10>
    6550:	14000001 	b	6554 <entry_84+0x14>
    6554:	14000001 	b	6558 <entry_84+0x18>
    6558:	14000001 	b	655c <entry_84+0x1c>
    655c:	14000001 	b	6560 <entry_84+0x20>
    6560:	14000001 	b	6564 <entry_84+0x24>
    6564:	14000001 	b	6568 <entry_84+0x28>
    6568:	14000001 	b	656c <entry_84+0x2c>
    656c:	14000001 	b	6570 <entry_84+0x30>
    6570:	14000001 	b	6574 <entry_84+0x34>
    6574:	14000001 	b	6578 <entry_84+0x38>
    6578:	14000001 	b	657c <entry_84+0x3c>
    657c:	14000001 	b	6580 <entry_84+0x40>
    6580:	14000001 	b	6584 <entry_84+0x44>
    6584:	14000001 	b	6588 <entry_84+0x48>
    6588:	14000001 	b	658c <entry_84+0x4c>
    658c:	14000001 	b	6590 <entry_84+0x50>
    6590:	14000001 	b	6594 <entry_84+0x54>
    6594:	14000001 	b	6598 <entry_84+0x58>
    6598:	14000001 	b	659c <entry_84+0x5c>
    659c:	14000001 	b	65a0 <entry_84+0x60>
    65a0:	14000001 	b	65a4 <entry_84+0x64>
    65a4:	14000001 	b	65a8 <entry_84+0x68>
    65a8:	14000001 	b	65ac <entry_84+0x6c>
    65ac:	14000001 	b	65b0 <entry_84+0x70>
    65b0:	14000001 	b	65b4 <entry_84+0x74>
    65b4:	14000001 	b	65b8 <entry_84+0x78>
    65b8:	14000001 	b	65bc <entry_84+0x7c>
    65bc:	14000001 	b	65c0 <entry_84+0x80>
    65c0:	14000001 	b	65c4 <entry_84+0x84>
    65c4:	14000001 	b	65c8 <entry_84+0x88>
    65c8:	14000001 	b	65cc <entry_84+0x8c>
    65cc:	14000001 	b	65d0 <entry_84+0x90>
    65d0:	14000001 	b	65d4 <entry_84+0x94>
    65d4:	14000001 	b	65d8 <entry_84+0x98>
    65d8:	14000001 	b	65dc <entry_84+0x9c>
    65dc:	14000001 	b	65e0 <entry_84+0xa0>
    65e0:	14000001 	b	65e4 <entry_84+0xa4>
    65e4:	14000001 	b	65e8 <entry_84+0xa8>
    65e8:	14000001 	b	65ec <entry_84+0xac>
    65ec:	14000001 	b	65f0 <entry_84+0xb0>
    65f0:	14000001 	b	65f4 <entry_84+0xb4>
    65f4:	14000001 	b	65f8 <entry_84+0xb8>
    65f8:	14000001 	b	65fc <entry_84+0xbc>
    65fc:	14000001 	b	6600 <entry_84+0xc0>
    6600:	14000001 	b	6604 <entry_84+0xc4>
    6604:	14000001 	b	6608 <entry_84+0xc8>
    6608:	14000001 	b	660c <entry_84+0xcc>
    660c:	14000001 	b	6610 <entry_84+0xd0>
    6610:	14000001 	b	6614 <entry_84+0xd4>
    6614:	14000001 	b	6618 <entry_84+0xd8>
    6618:	14000001 	b	661c <entry_84+0xdc>
    661c:	14000001 	b	6620 <entry_84+0xe0>
    6620:	14000001 	b	6624 <entry_84+0xe4>
    6624:	14000001 	b	6628 <entry_84+0xe8>
    6628:	14000001 	b	662c <entry_84+0xec>
    662c:	14000001 	b	6630 <entry_84+0xf0>
    6630:	14000001 	b	6634 <entry_84+0xf4>
    6634:	14000001 	b	6638 <entry_84+0xf8>
    6638:	14000001 	b	663c <entry_84+0xfc>
    663c:	14000001 	b	6640 <entry_84+0x100>
    6640:	14000001 	b	6644 <entry_84+0x104>
    6644:	14000001 	b	6648 <entry_84+0x108>
    6648:	14000001 	b	664c <entry_84+0x10c>
    664c:	14000001 	b	6650 <entry_84+0x110>
    6650:	14000001 	b	6654 <entry_84+0x114>
    6654:	14000001 	b	6658 <entry_84+0x118>
    6658:	14000001 	b	665c <entry_84+0x11c>
    665c:	14000001 	b	6660 <entry_84+0x120>
    6660:	14000001 	b	6664 <entry_84+0x124>
    6664:	14000001 	b	6668 <entry_84+0x128>
    6668:	14000001 	b	666c <entry_84+0x12c>
    666c:	14000001 	b	6670 <entry_84+0x130>
    6670:	14000001 	b	6674 <entry_84+0x134>
    6674:	14000001 	b	6678 <entry_84+0x138>
    6678:	14000001 	b	667c <entry_84+0x13c>
    667c:	14000001 	b	6680 <entry_84+0x140>
    6680:	14000001 	b	6684 <entry_84+0x144>
    6684:	14000001 	b	6688 <entry_84+0x148>
    6688:	14000001 	b	668c <entry_84+0x14c>
    668c:	14000001 	b	6690 <entry_84+0x150>
    6690:	17ffef2a 	b	2338 <dummy_done>
    6694:	d503201f 	nop
    6698:	d503201f 	nop
    669c:	d503201f 	nop

00000000000066a0 <entry_85>:
    66a0:	14000001 	b	66a4 <entry_85+0x4>
    66a4:	14000001 	b	66a8 <entry_85+0x8>
    66a8:	14000001 	b	66ac <entry_85+0xc>
    66ac:	14000001 	b	66b0 <entry_85+0x10>
    66b0:	14000001 	b	66b4 <entry_85+0x14>
    66b4:	14000001 	b	66b8 <entry_85+0x18>
    66b8:	14000001 	b	66bc <entry_85+0x1c>
    66bc:	14000001 	b	66c0 <entry_85+0x20>
    66c0:	14000001 	b	66c4 <entry_85+0x24>
    66c4:	14000001 	b	66c8 <entry_85+0x28>
    66c8:	14000001 	b	66cc <entry_85+0x2c>
    66cc:	14000001 	b	66d0 <entry_85+0x30>
    66d0:	14000001 	b	66d4 <entry_85+0x34>
    66d4:	14000001 	b	66d8 <entry_85+0x38>
    66d8:	14000001 	b	66dc <entry_85+0x3c>
    66dc:	14000001 	b	66e0 <entry_85+0x40>
    66e0:	14000001 	b	66e4 <entry_85+0x44>
    66e4:	14000001 	b	66e8 <entry_85+0x48>
    66e8:	14000001 	b	66ec <entry_85+0x4c>
    66ec:	14000001 	b	66f0 <entry_85+0x50>
    66f0:	14000001 	b	66f4 <entry_85+0x54>
    66f4:	14000001 	b	66f8 <entry_85+0x58>
    66f8:	14000001 	b	66fc <entry_85+0x5c>
    66fc:	14000001 	b	6700 <entry_85+0x60>
    6700:	14000001 	b	6704 <entry_85+0x64>
    6704:	14000001 	b	6708 <entry_85+0x68>
    6708:	14000001 	b	670c <entry_85+0x6c>
    670c:	14000001 	b	6710 <entry_85+0x70>
    6710:	14000001 	b	6714 <entry_85+0x74>
    6714:	14000001 	b	6718 <entry_85+0x78>
    6718:	14000001 	b	671c <entry_85+0x7c>
    671c:	14000001 	b	6720 <entry_85+0x80>
    6720:	14000001 	b	6724 <entry_85+0x84>
    6724:	14000001 	b	6728 <entry_85+0x88>
    6728:	14000001 	b	672c <entry_85+0x8c>
    672c:	14000001 	b	6730 <entry_85+0x90>
    6730:	14000001 	b	6734 <entry_85+0x94>
    6734:	14000001 	b	6738 <entry_85+0x98>
    6738:	14000001 	b	673c <entry_85+0x9c>
    673c:	14000001 	b	6740 <entry_85+0xa0>
    6740:	14000001 	b	6744 <entry_85+0xa4>
    6744:	14000001 	b	6748 <entry_85+0xa8>
    6748:	14000001 	b	674c <entry_85+0xac>
    674c:	14000001 	b	6750 <entry_85+0xb0>
    6750:	14000001 	b	6754 <entry_85+0xb4>
    6754:	14000001 	b	6758 <entry_85+0xb8>
    6758:	14000001 	b	675c <entry_85+0xbc>
    675c:	14000001 	b	6760 <entry_85+0xc0>
    6760:	14000001 	b	6764 <entry_85+0xc4>
    6764:	14000001 	b	6768 <entry_85+0xc8>
    6768:	14000001 	b	676c <entry_85+0xcc>
    676c:	14000001 	b	6770 <entry_85+0xd0>
    6770:	14000001 	b	6774 <entry_85+0xd4>
    6774:	14000001 	b	6778 <entry_85+0xd8>
    6778:	14000001 	b	677c <entry_85+0xdc>
    677c:	14000001 	b	6780 <entry_85+0xe0>
    6780:	14000001 	b	6784 <entry_85+0xe4>
    6784:	14000001 	b	6788 <entry_85+0xe8>
    6788:	14000001 	b	678c <entry_85+0xec>
    678c:	14000001 	b	6790 <entry_85+0xf0>
    6790:	14000001 	b	6794 <entry_85+0xf4>
    6794:	14000001 	b	6798 <entry_85+0xf8>
    6798:	14000001 	b	679c <entry_85+0xfc>
    679c:	14000001 	b	67a0 <entry_85+0x100>
    67a0:	14000001 	b	67a4 <entry_85+0x104>
    67a4:	14000001 	b	67a8 <entry_85+0x108>
    67a8:	14000001 	b	67ac <entry_85+0x10c>
    67ac:	14000001 	b	67b0 <entry_85+0x110>
    67b0:	14000001 	b	67b4 <entry_85+0x114>
    67b4:	14000001 	b	67b8 <entry_85+0x118>
    67b8:	14000001 	b	67bc <entry_85+0x11c>
    67bc:	14000001 	b	67c0 <entry_85+0x120>
    67c0:	14000001 	b	67c4 <entry_85+0x124>
    67c4:	14000001 	b	67c8 <entry_85+0x128>
    67c8:	14000001 	b	67cc <entry_85+0x12c>
    67cc:	14000001 	b	67d0 <entry_85+0x130>
    67d0:	14000001 	b	67d4 <entry_85+0x134>
    67d4:	14000001 	b	67d8 <entry_85+0x138>
    67d8:	14000001 	b	67dc <entry_85+0x13c>
    67dc:	14000001 	b	67e0 <entry_85+0x140>
    67e0:	14000001 	b	67e4 <entry_85+0x144>
    67e4:	14000001 	b	67e8 <entry_85+0x148>
    67e8:	14000001 	b	67ec <entry_85+0x14c>
    67ec:	14000001 	b	67f0 <entry_85+0x150>
    67f0:	14000001 	b	67f4 <entry_85+0x154>
    67f4:	17ffeed1 	b	2338 <dummy_done>
    67f8:	d503201f 	nop
    67fc:	d503201f 	nop

0000000000006800 <entry_86>:
    6800:	14000001 	b	6804 <entry_86+0x4>
    6804:	14000001 	b	6808 <entry_86+0x8>
    6808:	14000001 	b	680c <entry_86+0xc>
    680c:	14000001 	b	6810 <entry_86+0x10>
    6810:	14000001 	b	6814 <entry_86+0x14>
    6814:	14000001 	b	6818 <entry_86+0x18>
    6818:	14000001 	b	681c <entry_86+0x1c>
    681c:	14000001 	b	6820 <entry_86+0x20>
    6820:	14000001 	b	6824 <entry_86+0x24>
    6824:	14000001 	b	6828 <entry_86+0x28>
    6828:	14000001 	b	682c <entry_86+0x2c>
    682c:	14000001 	b	6830 <entry_86+0x30>
    6830:	14000001 	b	6834 <entry_86+0x34>
    6834:	14000001 	b	6838 <entry_86+0x38>
    6838:	14000001 	b	683c <entry_86+0x3c>
    683c:	14000001 	b	6840 <entry_86+0x40>
    6840:	14000001 	b	6844 <entry_86+0x44>
    6844:	14000001 	b	6848 <entry_86+0x48>
    6848:	14000001 	b	684c <entry_86+0x4c>
    684c:	14000001 	b	6850 <entry_86+0x50>
    6850:	14000001 	b	6854 <entry_86+0x54>
    6854:	14000001 	b	6858 <entry_86+0x58>
    6858:	14000001 	b	685c <entry_86+0x5c>
    685c:	14000001 	b	6860 <entry_86+0x60>
    6860:	14000001 	b	6864 <entry_86+0x64>
    6864:	14000001 	b	6868 <entry_86+0x68>
    6868:	14000001 	b	686c <entry_86+0x6c>
    686c:	14000001 	b	6870 <entry_86+0x70>
    6870:	14000001 	b	6874 <entry_86+0x74>
    6874:	14000001 	b	6878 <entry_86+0x78>
    6878:	14000001 	b	687c <entry_86+0x7c>
    687c:	14000001 	b	6880 <entry_86+0x80>
    6880:	14000001 	b	6884 <entry_86+0x84>
    6884:	14000001 	b	6888 <entry_86+0x88>
    6888:	14000001 	b	688c <entry_86+0x8c>
    688c:	14000001 	b	6890 <entry_86+0x90>
    6890:	14000001 	b	6894 <entry_86+0x94>
    6894:	14000001 	b	6898 <entry_86+0x98>
    6898:	14000001 	b	689c <entry_86+0x9c>
    689c:	14000001 	b	68a0 <entry_86+0xa0>
    68a0:	14000001 	b	68a4 <entry_86+0xa4>
    68a4:	14000001 	b	68a8 <entry_86+0xa8>
    68a8:	14000001 	b	68ac <entry_86+0xac>
    68ac:	14000001 	b	68b0 <entry_86+0xb0>
    68b0:	14000001 	b	68b4 <entry_86+0xb4>
    68b4:	14000001 	b	68b8 <entry_86+0xb8>
    68b8:	14000001 	b	68bc <entry_86+0xbc>
    68bc:	14000001 	b	68c0 <entry_86+0xc0>
    68c0:	14000001 	b	68c4 <entry_86+0xc4>
    68c4:	14000001 	b	68c8 <entry_86+0xc8>
    68c8:	14000001 	b	68cc <entry_86+0xcc>
    68cc:	14000001 	b	68d0 <entry_86+0xd0>
    68d0:	14000001 	b	68d4 <entry_86+0xd4>
    68d4:	14000001 	b	68d8 <entry_86+0xd8>
    68d8:	14000001 	b	68dc <entry_86+0xdc>
    68dc:	14000001 	b	68e0 <entry_86+0xe0>
    68e0:	14000001 	b	68e4 <entry_86+0xe4>
    68e4:	14000001 	b	68e8 <entry_86+0xe8>
    68e8:	14000001 	b	68ec <entry_86+0xec>
    68ec:	14000001 	b	68f0 <entry_86+0xf0>
    68f0:	14000001 	b	68f4 <entry_86+0xf4>
    68f4:	14000001 	b	68f8 <entry_86+0xf8>
    68f8:	14000001 	b	68fc <entry_86+0xfc>
    68fc:	14000001 	b	6900 <entry_86+0x100>
    6900:	14000001 	b	6904 <entry_86+0x104>
    6904:	14000001 	b	6908 <entry_86+0x108>
    6908:	14000001 	b	690c <entry_86+0x10c>
    690c:	14000001 	b	6910 <entry_86+0x110>
    6910:	14000001 	b	6914 <entry_86+0x114>
    6914:	14000001 	b	6918 <entry_86+0x118>
    6918:	14000001 	b	691c <entry_86+0x11c>
    691c:	14000001 	b	6920 <entry_86+0x120>
    6920:	14000001 	b	6924 <entry_86+0x124>
    6924:	14000001 	b	6928 <entry_86+0x128>
    6928:	14000001 	b	692c <entry_86+0x12c>
    692c:	14000001 	b	6930 <entry_86+0x130>
    6930:	14000001 	b	6934 <entry_86+0x134>
    6934:	14000001 	b	6938 <entry_86+0x138>
    6938:	14000001 	b	693c <entry_86+0x13c>
    693c:	14000001 	b	6940 <entry_86+0x140>
    6940:	14000001 	b	6944 <entry_86+0x144>
    6944:	14000001 	b	6948 <entry_86+0x148>
    6948:	14000001 	b	694c <entry_86+0x14c>
    694c:	14000001 	b	6950 <entry_86+0x150>
    6950:	14000001 	b	6954 <entry_86+0x154>
    6954:	14000001 	b	6958 <entry_86+0x158>
    6958:	17ffee78 	b	2338 <dummy_done>
    695c:	d503201f 	nop

0000000000006960 <entry_87>:
    6960:	14000001 	b	6964 <entry_87+0x4>
    6964:	14000001 	b	6968 <entry_87+0x8>
    6968:	14000001 	b	696c <entry_87+0xc>
    696c:	14000001 	b	6970 <entry_87+0x10>
    6970:	14000001 	b	6974 <entry_87+0x14>
    6974:	14000001 	b	6978 <entry_87+0x18>
    6978:	14000001 	b	697c <entry_87+0x1c>
    697c:	14000001 	b	6980 <entry_87+0x20>
    6980:	14000001 	b	6984 <entry_87+0x24>
    6984:	14000001 	b	6988 <entry_87+0x28>
    6988:	14000001 	b	698c <entry_87+0x2c>
    698c:	14000001 	b	6990 <entry_87+0x30>
    6990:	14000001 	b	6994 <entry_87+0x34>
    6994:	14000001 	b	6998 <entry_87+0x38>
    6998:	14000001 	b	699c <entry_87+0x3c>
    699c:	14000001 	b	69a0 <entry_87+0x40>
    69a0:	14000001 	b	69a4 <entry_87+0x44>
    69a4:	14000001 	b	69a8 <entry_87+0x48>
    69a8:	14000001 	b	69ac <entry_87+0x4c>
    69ac:	14000001 	b	69b0 <entry_87+0x50>
    69b0:	14000001 	b	69b4 <entry_87+0x54>
    69b4:	14000001 	b	69b8 <entry_87+0x58>
    69b8:	14000001 	b	69bc <entry_87+0x5c>
    69bc:	14000001 	b	69c0 <entry_87+0x60>
    69c0:	14000001 	b	69c4 <entry_87+0x64>
    69c4:	14000001 	b	69c8 <entry_87+0x68>
    69c8:	14000001 	b	69cc <entry_87+0x6c>
    69cc:	14000001 	b	69d0 <entry_87+0x70>
    69d0:	14000001 	b	69d4 <entry_87+0x74>
    69d4:	14000001 	b	69d8 <entry_87+0x78>
    69d8:	14000001 	b	69dc <entry_87+0x7c>
    69dc:	14000001 	b	69e0 <entry_87+0x80>
    69e0:	14000001 	b	69e4 <entry_87+0x84>
    69e4:	14000001 	b	69e8 <entry_87+0x88>
    69e8:	14000001 	b	69ec <entry_87+0x8c>
    69ec:	14000001 	b	69f0 <entry_87+0x90>
    69f0:	14000001 	b	69f4 <entry_87+0x94>
    69f4:	14000001 	b	69f8 <entry_87+0x98>
    69f8:	14000001 	b	69fc <entry_87+0x9c>
    69fc:	14000001 	b	6a00 <entry_87+0xa0>
    6a00:	14000001 	b	6a04 <entry_87+0xa4>
    6a04:	14000001 	b	6a08 <entry_87+0xa8>
    6a08:	14000001 	b	6a0c <entry_87+0xac>
    6a0c:	14000001 	b	6a10 <entry_87+0xb0>
    6a10:	14000001 	b	6a14 <entry_87+0xb4>
    6a14:	14000001 	b	6a18 <entry_87+0xb8>
    6a18:	14000001 	b	6a1c <entry_87+0xbc>
    6a1c:	14000001 	b	6a20 <entry_87+0xc0>
    6a20:	14000001 	b	6a24 <entry_87+0xc4>
    6a24:	14000001 	b	6a28 <entry_87+0xc8>
    6a28:	14000001 	b	6a2c <entry_87+0xcc>
    6a2c:	14000001 	b	6a30 <entry_87+0xd0>
    6a30:	14000001 	b	6a34 <entry_87+0xd4>
    6a34:	14000001 	b	6a38 <entry_87+0xd8>
    6a38:	14000001 	b	6a3c <entry_87+0xdc>
    6a3c:	14000001 	b	6a40 <entry_87+0xe0>
    6a40:	14000001 	b	6a44 <entry_87+0xe4>
    6a44:	14000001 	b	6a48 <entry_87+0xe8>
    6a48:	14000001 	b	6a4c <entry_87+0xec>
    6a4c:	14000001 	b	6a50 <entry_87+0xf0>
    6a50:	14000001 	b	6a54 <entry_87+0xf4>
    6a54:	14000001 	b	6a58 <entry_87+0xf8>
    6a58:	14000001 	b	6a5c <entry_87+0xfc>
    6a5c:	14000001 	b	6a60 <entry_87+0x100>
    6a60:	14000001 	b	6a64 <entry_87+0x104>
    6a64:	14000001 	b	6a68 <entry_87+0x108>
    6a68:	14000001 	b	6a6c <entry_87+0x10c>
    6a6c:	14000001 	b	6a70 <entry_87+0x110>
    6a70:	14000001 	b	6a74 <entry_87+0x114>
    6a74:	14000001 	b	6a78 <entry_87+0x118>
    6a78:	14000001 	b	6a7c <entry_87+0x11c>
    6a7c:	14000001 	b	6a80 <entry_87+0x120>
    6a80:	14000001 	b	6a84 <entry_87+0x124>
    6a84:	14000001 	b	6a88 <entry_87+0x128>
    6a88:	14000001 	b	6a8c <entry_87+0x12c>
    6a8c:	14000001 	b	6a90 <entry_87+0x130>
    6a90:	14000001 	b	6a94 <entry_87+0x134>
    6a94:	14000001 	b	6a98 <entry_87+0x138>
    6a98:	14000001 	b	6a9c <entry_87+0x13c>
    6a9c:	14000001 	b	6aa0 <entry_87+0x140>
    6aa0:	14000001 	b	6aa4 <entry_87+0x144>
    6aa4:	14000001 	b	6aa8 <entry_87+0x148>
    6aa8:	14000001 	b	6aac <entry_87+0x14c>
    6aac:	14000001 	b	6ab0 <entry_87+0x150>
    6ab0:	14000001 	b	6ab4 <entry_87+0x154>
    6ab4:	14000001 	b	6ab8 <entry_87+0x158>
    6ab8:	14000001 	b	6abc <entry_87+0x15c>
    6abc:	17ffee1f 	b	2338 <dummy_done>

0000000000006ac0 <entry_88>:
    6ac0:	14000001 	b	6ac4 <entry_88+0x4>
    6ac4:	14000001 	b	6ac8 <entry_88+0x8>
    6ac8:	14000001 	b	6acc <entry_88+0xc>
    6acc:	14000001 	b	6ad0 <entry_88+0x10>
    6ad0:	14000001 	b	6ad4 <entry_88+0x14>
    6ad4:	14000001 	b	6ad8 <entry_88+0x18>
    6ad8:	14000001 	b	6adc <entry_88+0x1c>
    6adc:	14000001 	b	6ae0 <entry_88+0x20>
    6ae0:	14000001 	b	6ae4 <entry_88+0x24>
    6ae4:	14000001 	b	6ae8 <entry_88+0x28>
    6ae8:	14000001 	b	6aec <entry_88+0x2c>
    6aec:	14000001 	b	6af0 <entry_88+0x30>
    6af0:	14000001 	b	6af4 <entry_88+0x34>
    6af4:	14000001 	b	6af8 <entry_88+0x38>
    6af8:	14000001 	b	6afc <entry_88+0x3c>
    6afc:	14000001 	b	6b00 <entry_88+0x40>
    6b00:	14000001 	b	6b04 <entry_88+0x44>
    6b04:	14000001 	b	6b08 <entry_88+0x48>
    6b08:	14000001 	b	6b0c <entry_88+0x4c>
    6b0c:	14000001 	b	6b10 <entry_88+0x50>
    6b10:	14000001 	b	6b14 <entry_88+0x54>
    6b14:	14000001 	b	6b18 <entry_88+0x58>
    6b18:	14000001 	b	6b1c <entry_88+0x5c>
    6b1c:	14000001 	b	6b20 <entry_88+0x60>
    6b20:	14000001 	b	6b24 <entry_88+0x64>
    6b24:	14000001 	b	6b28 <entry_88+0x68>
    6b28:	14000001 	b	6b2c <entry_88+0x6c>
    6b2c:	14000001 	b	6b30 <entry_88+0x70>
    6b30:	14000001 	b	6b34 <entry_88+0x74>
    6b34:	14000001 	b	6b38 <entry_88+0x78>
    6b38:	14000001 	b	6b3c <entry_88+0x7c>
    6b3c:	14000001 	b	6b40 <entry_88+0x80>
    6b40:	14000001 	b	6b44 <entry_88+0x84>
    6b44:	14000001 	b	6b48 <entry_88+0x88>
    6b48:	14000001 	b	6b4c <entry_88+0x8c>
    6b4c:	14000001 	b	6b50 <entry_88+0x90>
    6b50:	14000001 	b	6b54 <entry_88+0x94>
    6b54:	14000001 	b	6b58 <entry_88+0x98>
    6b58:	14000001 	b	6b5c <entry_88+0x9c>
    6b5c:	14000001 	b	6b60 <entry_88+0xa0>
    6b60:	14000001 	b	6b64 <entry_88+0xa4>
    6b64:	14000001 	b	6b68 <entry_88+0xa8>
    6b68:	14000001 	b	6b6c <entry_88+0xac>
    6b6c:	14000001 	b	6b70 <entry_88+0xb0>
    6b70:	14000001 	b	6b74 <entry_88+0xb4>
    6b74:	14000001 	b	6b78 <entry_88+0xb8>
    6b78:	14000001 	b	6b7c <entry_88+0xbc>
    6b7c:	14000001 	b	6b80 <entry_88+0xc0>
    6b80:	14000001 	b	6b84 <entry_88+0xc4>
    6b84:	14000001 	b	6b88 <entry_88+0xc8>
    6b88:	14000001 	b	6b8c <entry_88+0xcc>
    6b8c:	14000001 	b	6b90 <entry_88+0xd0>
    6b90:	14000001 	b	6b94 <entry_88+0xd4>
    6b94:	14000001 	b	6b98 <entry_88+0xd8>
    6b98:	14000001 	b	6b9c <entry_88+0xdc>
    6b9c:	14000001 	b	6ba0 <entry_88+0xe0>
    6ba0:	14000001 	b	6ba4 <entry_88+0xe4>
    6ba4:	14000001 	b	6ba8 <entry_88+0xe8>
    6ba8:	14000001 	b	6bac <entry_88+0xec>
    6bac:	14000001 	b	6bb0 <entry_88+0xf0>
    6bb0:	14000001 	b	6bb4 <entry_88+0xf4>
    6bb4:	14000001 	b	6bb8 <entry_88+0xf8>
    6bb8:	14000001 	b	6bbc <entry_88+0xfc>
    6bbc:	14000001 	b	6bc0 <entry_88+0x100>
    6bc0:	14000001 	b	6bc4 <entry_88+0x104>
    6bc4:	14000001 	b	6bc8 <entry_88+0x108>
    6bc8:	14000001 	b	6bcc <entry_88+0x10c>
    6bcc:	14000001 	b	6bd0 <entry_88+0x110>
    6bd0:	14000001 	b	6bd4 <entry_88+0x114>
    6bd4:	14000001 	b	6bd8 <entry_88+0x118>
    6bd8:	14000001 	b	6bdc <entry_88+0x11c>
    6bdc:	14000001 	b	6be0 <entry_88+0x120>
    6be0:	14000001 	b	6be4 <entry_88+0x124>
    6be4:	14000001 	b	6be8 <entry_88+0x128>
    6be8:	14000001 	b	6bec <entry_88+0x12c>
    6bec:	14000001 	b	6bf0 <entry_88+0x130>
    6bf0:	14000001 	b	6bf4 <entry_88+0x134>
    6bf4:	14000001 	b	6bf8 <entry_88+0x138>
    6bf8:	14000001 	b	6bfc <entry_88+0x13c>
    6bfc:	14000001 	b	6c00 <entry_88+0x140>
    6c00:	14000001 	b	6c04 <entry_88+0x144>
    6c04:	14000001 	b	6c08 <entry_88+0x148>
    6c08:	14000001 	b	6c0c <entry_88+0x14c>
    6c0c:	14000001 	b	6c10 <entry_88+0x150>
    6c10:	14000001 	b	6c14 <entry_88+0x154>
    6c14:	14000001 	b	6c18 <entry_88+0x158>
    6c18:	14000001 	b	6c1c <entry_88+0x15c>
    6c1c:	14000001 	b	6c20 <entry_88+0x160>
    6c20:	17ffedc6 	b	2338 <dummy_done>
    6c24:	d503201f 	nop
    6c28:	d503201f 	nop
    6c2c:	d503201f 	nop

0000000000006c30 <entry_89>:
    6c30:	14000001 	b	6c34 <entry_89+0x4>
    6c34:	14000001 	b	6c38 <entry_89+0x8>
    6c38:	14000001 	b	6c3c <entry_89+0xc>
    6c3c:	14000001 	b	6c40 <entry_89+0x10>
    6c40:	14000001 	b	6c44 <entry_89+0x14>
    6c44:	14000001 	b	6c48 <entry_89+0x18>
    6c48:	14000001 	b	6c4c <entry_89+0x1c>
    6c4c:	14000001 	b	6c50 <entry_89+0x20>
    6c50:	14000001 	b	6c54 <entry_89+0x24>
    6c54:	14000001 	b	6c58 <entry_89+0x28>
    6c58:	14000001 	b	6c5c <entry_89+0x2c>
    6c5c:	14000001 	b	6c60 <entry_89+0x30>
    6c60:	14000001 	b	6c64 <entry_89+0x34>
    6c64:	14000001 	b	6c68 <entry_89+0x38>
    6c68:	14000001 	b	6c6c <entry_89+0x3c>
    6c6c:	14000001 	b	6c70 <entry_89+0x40>
    6c70:	14000001 	b	6c74 <entry_89+0x44>
    6c74:	14000001 	b	6c78 <entry_89+0x48>
    6c78:	14000001 	b	6c7c <entry_89+0x4c>
    6c7c:	14000001 	b	6c80 <entry_89+0x50>
    6c80:	14000001 	b	6c84 <entry_89+0x54>
    6c84:	14000001 	b	6c88 <entry_89+0x58>
    6c88:	14000001 	b	6c8c <entry_89+0x5c>
    6c8c:	14000001 	b	6c90 <entry_89+0x60>
    6c90:	14000001 	b	6c94 <entry_89+0x64>
    6c94:	14000001 	b	6c98 <entry_89+0x68>
    6c98:	14000001 	b	6c9c <entry_89+0x6c>
    6c9c:	14000001 	b	6ca0 <entry_89+0x70>
    6ca0:	14000001 	b	6ca4 <entry_89+0x74>
    6ca4:	14000001 	b	6ca8 <entry_89+0x78>
    6ca8:	14000001 	b	6cac <entry_89+0x7c>
    6cac:	14000001 	b	6cb0 <entry_89+0x80>
    6cb0:	14000001 	b	6cb4 <entry_89+0x84>
    6cb4:	14000001 	b	6cb8 <entry_89+0x88>
    6cb8:	14000001 	b	6cbc <entry_89+0x8c>
    6cbc:	14000001 	b	6cc0 <entry_89+0x90>
    6cc0:	14000001 	b	6cc4 <entry_89+0x94>
    6cc4:	14000001 	b	6cc8 <entry_89+0x98>
    6cc8:	14000001 	b	6ccc <entry_89+0x9c>
    6ccc:	14000001 	b	6cd0 <entry_89+0xa0>
    6cd0:	14000001 	b	6cd4 <entry_89+0xa4>
    6cd4:	14000001 	b	6cd8 <entry_89+0xa8>
    6cd8:	14000001 	b	6cdc <entry_89+0xac>
    6cdc:	14000001 	b	6ce0 <entry_89+0xb0>
    6ce0:	14000001 	b	6ce4 <entry_89+0xb4>
    6ce4:	14000001 	b	6ce8 <entry_89+0xb8>
    6ce8:	14000001 	b	6cec <entry_89+0xbc>
    6cec:	14000001 	b	6cf0 <entry_89+0xc0>
    6cf0:	14000001 	b	6cf4 <entry_89+0xc4>
    6cf4:	14000001 	b	6cf8 <entry_89+0xc8>
    6cf8:	14000001 	b	6cfc <entry_89+0xcc>
    6cfc:	14000001 	b	6d00 <entry_89+0xd0>
    6d00:	14000001 	b	6d04 <entry_89+0xd4>
    6d04:	14000001 	b	6d08 <entry_89+0xd8>
    6d08:	14000001 	b	6d0c <entry_89+0xdc>
    6d0c:	14000001 	b	6d10 <entry_89+0xe0>
    6d10:	14000001 	b	6d14 <entry_89+0xe4>
    6d14:	14000001 	b	6d18 <entry_89+0xe8>
    6d18:	14000001 	b	6d1c <entry_89+0xec>
    6d1c:	14000001 	b	6d20 <entry_89+0xf0>
    6d20:	14000001 	b	6d24 <entry_89+0xf4>
    6d24:	14000001 	b	6d28 <entry_89+0xf8>
    6d28:	14000001 	b	6d2c <entry_89+0xfc>
    6d2c:	14000001 	b	6d30 <entry_89+0x100>
    6d30:	14000001 	b	6d34 <entry_89+0x104>
    6d34:	14000001 	b	6d38 <entry_89+0x108>
    6d38:	14000001 	b	6d3c <entry_89+0x10c>
    6d3c:	14000001 	b	6d40 <entry_89+0x110>
    6d40:	14000001 	b	6d44 <entry_89+0x114>
    6d44:	14000001 	b	6d48 <entry_89+0x118>
    6d48:	14000001 	b	6d4c <entry_89+0x11c>
    6d4c:	14000001 	b	6d50 <entry_89+0x120>
    6d50:	14000001 	b	6d54 <entry_89+0x124>
    6d54:	14000001 	b	6d58 <entry_89+0x128>
    6d58:	14000001 	b	6d5c <entry_89+0x12c>
    6d5c:	14000001 	b	6d60 <entry_89+0x130>
    6d60:	14000001 	b	6d64 <entry_89+0x134>
    6d64:	14000001 	b	6d68 <entry_89+0x138>
    6d68:	14000001 	b	6d6c <entry_89+0x13c>
    6d6c:	14000001 	b	6d70 <entry_89+0x140>
    6d70:	14000001 	b	6d74 <entry_89+0x144>
    6d74:	14000001 	b	6d78 <entry_89+0x148>
    6d78:	14000001 	b	6d7c <entry_89+0x14c>
    6d7c:	14000001 	b	6d80 <entry_89+0x150>
    6d80:	14000001 	b	6d84 <entry_89+0x154>
    6d84:	14000001 	b	6d88 <entry_89+0x158>
    6d88:	14000001 	b	6d8c <entry_89+0x15c>
    6d8c:	14000001 	b	6d90 <entry_89+0x160>
    6d90:	14000001 	b	6d94 <entry_89+0x164>
    6d94:	17ffed69 	b	2338 <dummy_done>
    6d98:	d503201f 	nop
    6d9c:	d503201f 	nop

0000000000006da0 <entry_90>:
    6da0:	14000001 	b	6da4 <entry_90+0x4>
    6da4:	14000001 	b	6da8 <entry_90+0x8>
    6da8:	14000001 	b	6dac <entry_90+0xc>
    6dac:	14000001 	b	6db0 <entry_90+0x10>
    6db0:	14000001 	b	6db4 <entry_90+0x14>
    6db4:	14000001 	b	6db8 <entry_90+0x18>
    6db8:	14000001 	b	6dbc <entry_90+0x1c>
    6dbc:	14000001 	b	6dc0 <entry_90+0x20>
    6dc0:	14000001 	b	6dc4 <entry_90+0x24>
    6dc4:	14000001 	b	6dc8 <entry_90+0x28>
    6dc8:	14000001 	b	6dcc <entry_90+0x2c>
    6dcc:	14000001 	b	6dd0 <entry_90+0x30>
    6dd0:	14000001 	b	6dd4 <entry_90+0x34>
    6dd4:	14000001 	b	6dd8 <entry_90+0x38>
    6dd8:	14000001 	b	6ddc <entry_90+0x3c>
    6ddc:	14000001 	b	6de0 <entry_90+0x40>
    6de0:	14000001 	b	6de4 <entry_90+0x44>
    6de4:	14000001 	b	6de8 <entry_90+0x48>
    6de8:	14000001 	b	6dec <entry_90+0x4c>
    6dec:	14000001 	b	6df0 <entry_90+0x50>
    6df0:	14000001 	b	6df4 <entry_90+0x54>
    6df4:	14000001 	b	6df8 <entry_90+0x58>
    6df8:	14000001 	b	6dfc <entry_90+0x5c>
    6dfc:	14000001 	b	6e00 <entry_90+0x60>
    6e00:	14000001 	b	6e04 <entry_90+0x64>
    6e04:	14000001 	b	6e08 <entry_90+0x68>
    6e08:	14000001 	b	6e0c <entry_90+0x6c>
    6e0c:	14000001 	b	6e10 <entry_90+0x70>
    6e10:	14000001 	b	6e14 <entry_90+0x74>
    6e14:	14000001 	b	6e18 <entry_90+0x78>
    6e18:	14000001 	b	6e1c <entry_90+0x7c>
    6e1c:	14000001 	b	6e20 <entry_90+0x80>
    6e20:	14000001 	b	6e24 <entry_90+0x84>
    6e24:	14000001 	b	6e28 <entry_90+0x88>
    6e28:	14000001 	b	6e2c <entry_90+0x8c>
    6e2c:	14000001 	b	6e30 <entry_90+0x90>
    6e30:	14000001 	b	6e34 <entry_90+0x94>
    6e34:	14000001 	b	6e38 <entry_90+0x98>
    6e38:	14000001 	b	6e3c <entry_90+0x9c>
    6e3c:	14000001 	b	6e40 <entry_90+0xa0>
    6e40:	14000001 	b	6e44 <entry_90+0xa4>
    6e44:	14000001 	b	6e48 <entry_90+0xa8>
    6e48:	14000001 	b	6e4c <entry_90+0xac>
    6e4c:	14000001 	b	6e50 <entry_90+0xb0>
    6e50:	14000001 	b	6e54 <entry_90+0xb4>
    6e54:	14000001 	b	6e58 <entry_90+0xb8>
    6e58:	14000001 	b	6e5c <entry_90+0xbc>
    6e5c:	14000001 	b	6e60 <entry_90+0xc0>
    6e60:	14000001 	b	6e64 <entry_90+0xc4>
    6e64:	14000001 	b	6e68 <entry_90+0xc8>
    6e68:	14000001 	b	6e6c <entry_90+0xcc>
    6e6c:	14000001 	b	6e70 <entry_90+0xd0>
    6e70:	14000001 	b	6e74 <entry_90+0xd4>
    6e74:	14000001 	b	6e78 <entry_90+0xd8>
    6e78:	14000001 	b	6e7c <entry_90+0xdc>
    6e7c:	14000001 	b	6e80 <entry_90+0xe0>
    6e80:	14000001 	b	6e84 <entry_90+0xe4>
    6e84:	14000001 	b	6e88 <entry_90+0xe8>
    6e88:	14000001 	b	6e8c <entry_90+0xec>
    6e8c:	14000001 	b	6e90 <entry_90+0xf0>
    6e90:	14000001 	b	6e94 <entry_90+0xf4>
    6e94:	14000001 	b	6e98 <entry_90+0xf8>
    6e98:	14000001 	b	6e9c <entry_90+0xfc>
    6e9c:	14000001 	b	6ea0 <entry_90+0x100>
    6ea0:	14000001 	b	6ea4 <entry_90+0x104>
    6ea4:	14000001 	b	6ea8 <entry_90+0x108>
    6ea8:	14000001 	b	6eac <entry_90+0x10c>
    6eac:	14000001 	b	6eb0 <entry_90+0x110>
    6eb0:	14000001 	b	6eb4 <entry_90+0x114>
    6eb4:	14000001 	b	6eb8 <entry_90+0x118>
    6eb8:	14000001 	b	6ebc <entry_90+0x11c>
    6ebc:	14000001 	b	6ec0 <entry_90+0x120>
    6ec0:	14000001 	b	6ec4 <entry_90+0x124>
    6ec4:	14000001 	b	6ec8 <entry_90+0x128>
    6ec8:	14000001 	b	6ecc <entry_90+0x12c>
    6ecc:	14000001 	b	6ed0 <entry_90+0x130>
    6ed0:	14000001 	b	6ed4 <entry_90+0x134>
    6ed4:	14000001 	b	6ed8 <entry_90+0x138>
    6ed8:	14000001 	b	6edc <entry_90+0x13c>
    6edc:	14000001 	b	6ee0 <entry_90+0x140>
    6ee0:	14000001 	b	6ee4 <entry_90+0x144>
    6ee4:	14000001 	b	6ee8 <entry_90+0x148>
    6ee8:	14000001 	b	6eec <entry_90+0x14c>
    6eec:	14000001 	b	6ef0 <entry_90+0x150>
    6ef0:	14000001 	b	6ef4 <entry_90+0x154>
    6ef4:	14000001 	b	6ef8 <entry_90+0x158>
    6ef8:	14000001 	b	6efc <entry_90+0x15c>
    6efc:	14000001 	b	6f00 <entry_90+0x160>
    6f00:	14000001 	b	6f04 <entry_90+0x164>
    6f04:	14000001 	b	6f08 <entry_90+0x168>
    6f08:	17ffed0c 	b	2338 <dummy_done>
    6f0c:	d503201f 	nop

0000000000006f10 <entry_91>:
    6f10:	14000001 	b	6f14 <entry_91+0x4>
    6f14:	14000001 	b	6f18 <entry_91+0x8>
    6f18:	14000001 	b	6f1c <entry_91+0xc>
    6f1c:	14000001 	b	6f20 <entry_91+0x10>
    6f20:	14000001 	b	6f24 <entry_91+0x14>
    6f24:	14000001 	b	6f28 <entry_91+0x18>
    6f28:	14000001 	b	6f2c <entry_91+0x1c>
    6f2c:	14000001 	b	6f30 <entry_91+0x20>
    6f30:	14000001 	b	6f34 <entry_91+0x24>
    6f34:	14000001 	b	6f38 <entry_91+0x28>
    6f38:	14000001 	b	6f3c <entry_91+0x2c>
    6f3c:	14000001 	b	6f40 <entry_91+0x30>
    6f40:	14000001 	b	6f44 <entry_91+0x34>
    6f44:	14000001 	b	6f48 <entry_91+0x38>
    6f48:	14000001 	b	6f4c <entry_91+0x3c>
    6f4c:	14000001 	b	6f50 <entry_91+0x40>
    6f50:	14000001 	b	6f54 <entry_91+0x44>
    6f54:	14000001 	b	6f58 <entry_91+0x48>
    6f58:	14000001 	b	6f5c <entry_91+0x4c>
    6f5c:	14000001 	b	6f60 <entry_91+0x50>
    6f60:	14000001 	b	6f64 <entry_91+0x54>
    6f64:	14000001 	b	6f68 <entry_91+0x58>
    6f68:	14000001 	b	6f6c <entry_91+0x5c>
    6f6c:	14000001 	b	6f70 <entry_91+0x60>
    6f70:	14000001 	b	6f74 <entry_91+0x64>
    6f74:	14000001 	b	6f78 <entry_91+0x68>
    6f78:	14000001 	b	6f7c <entry_91+0x6c>
    6f7c:	14000001 	b	6f80 <entry_91+0x70>
    6f80:	14000001 	b	6f84 <entry_91+0x74>
    6f84:	14000001 	b	6f88 <entry_91+0x78>
    6f88:	14000001 	b	6f8c <entry_91+0x7c>
    6f8c:	14000001 	b	6f90 <entry_91+0x80>
    6f90:	14000001 	b	6f94 <entry_91+0x84>
    6f94:	14000001 	b	6f98 <entry_91+0x88>
    6f98:	14000001 	b	6f9c <entry_91+0x8c>
    6f9c:	14000001 	b	6fa0 <entry_91+0x90>
    6fa0:	14000001 	b	6fa4 <entry_91+0x94>
    6fa4:	14000001 	b	6fa8 <entry_91+0x98>
    6fa8:	14000001 	b	6fac <entry_91+0x9c>
    6fac:	14000001 	b	6fb0 <entry_91+0xa0>
    6fb0:	14000001 	b	6fb4 <entry_91+0xa4>
    6fb4:	14000001 	b	6fb8 <entry_91+0xa8>
    6fb8:	14000001 	b	6fbc <entry_91+0xac>
    6fbc:	14000001 	b	6fc0 <entry_91+0xb0>
    6fc0:	14000001 	b	6fc4 <entry_91+0xb4>
    6fc4:	14000001 	b	6fc8 <entry_91+0xb8>
    6fc8:	14000001 	b	6fcc <entry_91+0xbc>
    6fcc:	14000001 	b	6fd0 <entry_91+0xc0>
    6fd0:	14000001 	b	6fd4 <entry_91+0xc4>
    6fd4:	14000001 	b	6fd8 <entry_91+0xc8>
    6fd8:	14000001 	b	6fdc <entry_91+0xcc>
    6fdc:	14000001 	b	6fe0 <entry_91+0xd0>
    6fe0:	14000001 	b	6fe4 <entry_91+0xd4>
    6fe4:	14000001 	b	6fe8 <entry_91+0xd8>
    6fe8:	14000001 	b	6fec <entry_91+0xdc>
    6fec:	14000001 	b	6ff0 <entry_91+0xe0>
    6ff0:	14000001 	b	6ff4 <entry_91+0xe4>
    6ff4:	14000001 	b	6ff8 <entry_91+0xe8>
    6ff8:	14000001 	b	6ffc <entry_91+0xec>
    6ffc:	14000001 	b	7000 <entry_91+0xf0>
    7000:	14000001 	b	7004 <entry_91+0xf4>
    7004:	14000001 	b	7008 <entry_91+0xf8>
    7008:	14000001 	b	700c <entry_91+0xfc>
    700c:	14000001 	b	7010 <entry_91+0x100>
    7010:	14000001 	b	7014 <entry_91+0x104>
    7014:	14000001 	b	7018 <entry_91+0x108>
    7018:	14000001 	b	701c <entry_91+0x10c>
    701c:	14000001 	b	7020 <entry_91+0x110>
    7020:	14000001 	b	7024 <entry_91+0x114>
    7024:	14000001 	b	7028 <entry_91+0x118>
    7028:	14000001 	b	702c <entry_91+0x11c>
    702c:	14000001 	b	7030 <entry_91+0x120>
    7030:	14000001 	b	7034 <entry_91+0x124>
    7034:	14000001 	b	7038 <entry_91+0x128>
    7038:	14000001 	b	703c <entry_91+0x12c>
    703c:	14000001 	b	7040 <entry_91+0x130>
    7040:	14000001 	b	7044 <entry_91+0x134>
    7044:	14000001 	b	7048 <entry_91+0x138>
    7048:	14000001 	b	704c <entry_91+0x13c>
    704c:	14000001 	b	7050 <entry_91+0x140>
    7050:	14000001 	b	7054 <entry_91+0x144>
    7054:	14000001 	b	7058 <entry_91+0x148>
    7058:	14000001 	b	705c <entry_91+0x14c>
    705c:	14000001 	b	7060 <entry_91+0x150>
    7060:	14000001 	b	7064 <entry_91+0x154>
    7064:	14000001 	b	7068 <entry_91+0x158>
    7068:	14000001 	b	706c <entry_91+0x15c>
    706c:	14000001 	b	7070 <entry_91+0x160>
    7070:	14000001 	b	7074 <entry_91+0x164>
    7074:	14000001 	b	7078 <entry_91+0x168>
    7078:	14000001 	b	707c <entry_91+0x16c>
    707c:	17ffecaf 	b	2338 <dummy_done>

0000000000007080 <entry_92>:
    7080:	14000001 	b	7084 <entry_92+0x4>
    7084:	14000001 	b	7088 <entry_92+0x8>
    7088:	14000001 	b	708c <entry_92+0xc>
    708c:	14000001 	b	7090 <entry_92+0x10>
    7090:	14000001 	b	7094 <entry_92+0x14>
    7094:	14000001 	b	7098 <entry_92+0x18>
    7098:	14000001 	b	709c <entry_92+0x1c>
    709c:	14000001 	b	70a0 <entry_92+0x20>
    70a0:	14000001 	b	70a4 <entry_92+0x24>
    70a4:	14000001 	b	70a8 <entry_92+0x28>
    70a8:	14000001 	b	70ac <entry_92+0x2c>
    70ac:	14000001 	b	70b0 <entry_92+0x30>
    70b0:	14000001 	b	70b4 <entry_92+0x34>
    70b4:	14000001 	b	70b8 <entry_92+0x38>
    70b8:	14000001 	b	70bc <entry_92+0x3c>
    70bc:	14000001 	b	70c0 <entry_92+0x40>
    70c0:	14000001 	b	70c4 <entry_92+0x44>
    70c4:	14000001 	b	70c8 <entry_92+0x48>
    70c8:	14000001 	b	70cc <entry_92+0x4c>
    70cc:	14000001 	b	70d0 <entry_92+0x50>
    70d0:	14000001 	b	70d4 <entry_92+0x54>
    70d4:	14000001 	b	70d8 <entry_92+0x58>
    70d8:	14000001 	b	70dc <entry_92+0x5c>
    70dc:	14000001 	b	70e0 <entry_92+0x60>
    70e0:	14000001 	b	70e4 <entry_92+0x64>
    70e4:	14000001 	b	70e8 <entry_92+0x68>
    70e8:	14000001 	b	70ec <entry_92+0x6c>
    70ec:	14000001 	b	70f0 <entry_92+0x70>
    70f0:	14000001 	b	70f4 <entry_92+0x74>
    70f4:	14000001 	b	70f8 <entry_92+0x78>
    70f8:	14000001 	b	70fc <entry_92+0x7c>
    70fc:	14000001 	b	7100 <entry_92+0x80>
    7100:	14000001 	b	7104 <entry_92+0x84>
    7104:	14000001 	b	7108 <entry_92+0x88>
    7108:	14000001 	b	710c <entry_92+0x8c>
    710c:	14000001 	b	7110 <entry_92+0x90>
    7110:	14000001 	b	7114 <entry_92+0x94>
    7114:	14000001 	b	7118 <entry_92+0x98>
    7118:	14000001 	b	711c <entry_92+0x9c>
    711c:	14000001 	b	7120 <entry_92+0xa0>
    7120:	14000001 	b	7124 <entry_92+0xa4>
    7124:	14000001 	b	7128 <entry_92+0xa8>
    7128:	14000001 	b	712c <entry_92+0xac>
    712c:	14000001 	b	7130 <entry_92+0xb0>
    7130:	14000001 	b	7134 <entry_92+0xb4>
    7134:	14000001 	b	7138 <entry_92+0xb8>
    7138:	14000001 	b	713c <entry_92+0xbc>
    713c:	14000001 	b	7140 <entry_92+0xc0>
    7140:	14000001 	b	7144 <entry_92+0xc4>
    7144:	14000001 	b	7148 <entry_92+0xc8>
    7148:	14000001 	b	714c <entry_92+0xcc>
    714c:	14000001 	b	7150 <entry_92+0xd0>
    7150:	14000001 	b	7154 <entry_92+0xd4>
    7154:	14000001 	b	7158 <entry_92+0xd8>
    7158:	14000001 	b	715c <entry_92+0xdc>
    715c:	14000001 	b	7160 <entry_92+0xe0>
    7160:	14000001 	b	7164 <entry_92+0xe4>
    7164:	14000001 	b	7168 <entry_92+0xe8>
    7168:	14000001 	b	716c <entry_92+0xec>
    716c:	14000001 	b	7170 <entry_92+0xf0>
    7170:	14000001 	b	7174 <entry_92+0xf4>
    7174:	14000001 	b	7178 <entry_92+0xf8>
    7178:	14000001 	b	717c <entry_92+0xfc>
    717c:	14000001 	b	7180 <entry_92+0x100>
    7180:	14000001 	b	7184 <entry_92+0x104>
    7184:	14000001 	b	7188 <entry_92+0x108>
    7188:	14000001 	b	718c <entry_92+0x10c>
    718c:	14000001 	b	7190 <entry_92+0x110>
    7190:	14000001 	b	7194 <entry_92+0x114>
    7194:	14000001 	b	7198 <entry_92+0x118>
    7198:	14000001 	b	719c <entry_92+0x11c>
    719c:	14000001 	b	71a0 <entry_92+0x120>
    71a0:	14000001 	b	71a4 <entry_92+0x124>
    71a4:	14000001 	b	71a8 <entry_92+0x128>
    71a8:	14000001 	b	71ac <entry_92+0x12c>
    71ac:	14000001 	b	71b0 <entry_92+0x130>
    71b0:	14000001 	b	71b4 <entry_92+0x134>
    71b4:	14000001 	b	71b8 <entry_92+0x138>
    71b8:	14000001 	b	71bc <entry_92+0x13c>
    71bc:	14000001 	b	71c0 <entry_92+0x140>
    71c0:	14000001 	b	71c4 <entry_92+0x144>
    71c4:	14000001 	b	71c8 <entry_92+0x148>
    71c8:	14000001 	b	71cc <entry_92+0x14c>
    71cc:	14000001 	b	71d0 <entry_92+0x150>
    71d0:	14000001 	b	71d4 <entry_92+0x154>
    71d4:	14000001 	b	71d8 <entry_92+0x158>
    71d8:	14000001 	b	71dc <entry_92+0x15c>
    71dc:	14000001 	b	71e0 <entry_92+0x160>
    71e0:	14000001 	b	71e4 <entry_92+0x164>
    71e4:	14000001 	b	71e8 <entry_92+0x168>
    71e8:	14000001 	b	71ec <entry_92+0x16c>
    71ec:	14000001 	b	71f0 <entry_92+0x170>
    71f0:	17ffec52 	b	2338 <dummy_done>
    71f4:	d503201f 	nop
    71f8:	d503201f 	nop
    71fc:	d503201f 	nop

0000000000007200 <entry_93>:
    7200:	14000001 	b	7204 <entry_93+0x4>
    7204:	14000001 	b	7208 <entry_93+0x8>
    7208:	14000001 	b	720c <entry_93+0xc>
    720c:	14000001 	b	7210 <entry_93+0x10>
    7210:	14000001 	b	7214 <entry_93+0x14>
    7214:	14000001 	b	7218 <entry_93+0x18>
    7218:	14000001 	b	721c <entry_93+0x1c>
    721c:	14000001 	b	7220 <entry_93+0x20>
    7220:	14000001 	b	7224 <entry_93+0x24>
    7224:	14000001 	b	7228 <entry_93+0x28>
    7228:	14000001 	b	722c <entry_93+0x2c>
    722c:	14000001 	b	7230 <entry_93+0x30>
    7230:	14000001 	b	7234 <entry_93+0x34>
    7234:	14000001 	b	7238 <entry_93+0x38>
    7238:	14000001 	b	723c <entry_93+0x3c>
    723c:	14000001 	b	7240 <entry_93+0x40>
    7240:	14000001 	b	7244 <entry_93+0x44>
    7244:	14000001 	b	7248 <entry_93+0x48>
    7248:	14000001 	b	724c <entry_93+0x4c>
    724c:	14000001 	b	7250 <entry_93+0x50>
    7250:	14000001 	b	7254 <entry_93+0x54>
    7254:	14000001 	b	7258 <entry_93+0x58>
    7258:	14000001 	b	725c <entry_93+0x5c>
    725c:	14000001 	b	7260 <entry_93+0x60>
    7260:	14000001 	b	7264 <entry_93+0x64>
    7264:	14000001 	b	7268 <entry_93+0x68>
    7268:	14000001 	b	726c <entry_93+0x6c>
    726c:	14000001 	b	7270 <entry_93+0x70>
    7270:	14000001 	b	7274 <entry_93+0x74>
    7274:	14000001 	b	7278 <entry_93+0x78>
    7278:	14000001 	b	727c <entry_93+0x7c>
    727c:	14000001 	b	7280 <entry_93+0x80>
    7280:	14000001 	b	7284 <entry_93+0x84>
    7284:	14000001 	b	7288 <entry_93+0x88>
    7288:	14000001 	b	728c <entry_93+0x8c>
    728c:	14000001 	b	7290 <entry_93+0x90>
    7290:	14000001 	b	7294 <entry_93+0x94>
    7294:	14000001 	b	7298 <entry_93+0x98>
    7298:	14000001 	b	729c <entry_93+0x9c>
    729c:	14000001 	b	72a0 <entry_93+0xa0>
    72a0:	14000001 	b	72a4 <entry_93+0xa4>
    72a4:	14000001 	b	72a8 <entry_93+0xa8>
    72a8:	14000001 	b	72ac <entry_93+0xac>
    72ac:	14000001 	b	72b0 <entry_93+0xb0>
    72b0:	14000001 	b	72b4 <entry_93+0xb4>
    72b4:	14000001 	b	72b8 <entry_93+0xb8>
    72b8:	14000001 	b	72bc <entry_93+0xbc>
    72bc:	14000001 	b	72c0 <entry_93+0xc0>
    72c0:	14000001 	b	72c4 <entry_93+0xc4>
    72c4:	14000001 	b	72c8 <entry_93+0xc8>
    72c8:	14000001 	b	72cc <entry_93+0xcc>
    72cc:	14000001 	b	72d0 <entry_93+0xd0>
    72d0:	14000001 	b	72d4 <entry_93+0xd4>
    72d4:	14000001 	b	72d8 <entry_93+0xd8>
    72d8:	14000001 	b	72dc <entry_93+0xdc>
    72dc:	14000001 	b	72e0 <entry_93+0xe0>
    72e0:	14000001 	b	72e4 <entry_93+0xe4>
    72e4:	14000001 	b	72e8 <entry_93+0xe8>
    72e8:	14000001 	b	72ec <entry_93+0xec>
    72ec:	14000001 	b	72f0 <entry_93+0xf0>
    72f0:	14000001 	b	72f4 <entry_93+0xf4>
    72f4:	14000001 	b	72f8 <entry_93+0xf8>
    72f8:	14000001 	b	72fc <entry_93+0xfc>
    72fc:	14000001 	b	7300 <entry_93+0x100>
    7300:	14000001 	b	7304 <entry_93+0x104>
    7304:	14000001 	b	7308 <entry_93+0x108>
    7308:	14000001 	b	730c <entry_93+0x10c>
    730c:	14000001 	b	7310 <entry_93+0x110>
    7310:	14000001 	b	7314 <entry_93+0x114>
    7314:	14000001 	b	7318 <entry_93+0x118>
    7318:	14000001 	b	731c <entry_93+0x11c>
    731c:	14000001 	b	7320 <entry_93+0x120>
    7320:	14000001 	b	7324 <entry_93+0x124>
    7324:	14000001 	b	7328 <entry_93+0x128>
    7328:	14000001 	b	732c <entry_93+0x12c>
    732c:	14000001 	b	7330 <entry_93+0x130>
    7330:	14000001 	b	7334 <entry_93+0x134>
    7334:	14000001 	b	7338 <entry_93+0x138>
    7338:	14000001 	b	733c <entry_93+0x13c>
    733c:	14000001 	b	7340 <entry_93+0x140>
    7340:	14000001 	b	7344 <entry_93+0x144>
    7344:	14000001 	b	7348 <entry_93+0x148>
    7348:	14000001 	b	734c <entry_93+0x14c>
    734c:	14000001 	b	7350 <entry_93+0x150>
    7350:	14000001 	b	7354 <entry_93+0x154>
    7354:	14000001 	b	7358 <entry_93+0x158>
    7358:	14000001 	b	735c <entry_93+0x15c>
    735c:	14000001 	b	7360 <entry_93+0x160>
    7360:	14000001 	b	7364 <entry_93+0x164>
    7364:	14000001 	b	7368 <entry_93+0x168>
    7368:	14000001 	b	736c <entry_93+0x16c>
    736c:	14000001 	b	7370 <entry_93+0x170>
    7370:	14000001 	b	7374 <entry_93+0x174>
    7374:	17ffebf1 	b	2338 <dummy_done>
    7378:	d503201f 	nop
    737c:	d503201f 	nop

0000000000007380 <entry_94>:
    7380:	14000001 	b	7384 <entry_94+0x4>
    7384:	14000001 	b	7388 <entry_94+0x8>
    7388:	14000001 	b	738c <entry_94+0xc>
    738c:	14000001 	b	7390 <entry_94+0x10>
    7390:	14000001 	b	7394 <entry_94+0x14>
    7394:	14000001 	b	7398 <entry_94+0x18>
    7398:	14000001 	b	739c <entry_94+0x1c>
    739c:	14000001 	b	73a0 <entry_94+0x20>
    73a0:	14000001 	b	73a4 <entry_94+0x24>
    73a4:	14000001 	b	73a8 <entry_94+0x28>
    73a8:	14000001 	b	73ac <entry_94+0x2c>
    73ac:	14000001 	b	73b0 <entry_94+0x30>
    73b0:	14000001 	b	73b4 <entry_94+0x34>
    73b4:	14000001 	b	73b8 <entry_94+0x38>
    73b8:	14000001 	b	73bc <entry_94+0x3c>
    73bc:	14000001 	b	73c0 <entry_94+0x40>
    73c0:	14000001 	b	73c4 <entry_94+0x44>
    73c4:	14000001 	b	73c8 <entry_94+0x48>
    73c8:	14000001 	b	73cc <entry_94+0x4c>
    73cc:	14000001 	b	73d0 <entry_94+0x50>
    73d0:	14000001 	b	73d4 <entry_94+0x54>
    73d4:	14000001 	b	73d8 <entry_94+0x58>
    73d8:	14000001 	b	73dc <entry_94+0x5c>
    73dc:	14000001 	b	73e0 <entry_94+0x60>
    73e0:	14000001 	b	73e4 <entry_94+0x64>
    73e4:	14000001 	b	73e8 <entry_94+0x68>
    73e8:	14000001 	b	73ec <entry_94+0x6c>
    73ec:	14000001 	b	73f0 <entry_94+0x70>
    73f0:	14000001 	b	73f4 <entry_94+0x74>
    73f4:	14000001 	b	73f8 <entry_94+0x78>
    73f8:	14000001 	b	73fc <entry_94+0x7c>
    73fc:	14000001 	b	7400 <entry_94+0x80>
    7400:	14000001 	b	7404 <entry_94+0x84>
    7404:	14000001 	b	7408 <entry_94+0x88>
    7408:	14000001 	b	740c <entry_94+0x8c>
    740c:	14000001 	b	7410 <entry_94+0x90>
    7410:	14000001 	b	7414 <entry_94+0x94>
    7414:	14000001 	b	7418 <entry_94+0x98>
    7418:	14000001 	b	741c <entry_94+0x9c>
    741c:	14000001 	b	7420 <entry_94+0xa0>
    7420:	14000001 	b	7424 <entry_94+0xa4>
    7424:	14000001 	b	7428 <entry_94+0xa8>
    7428:	14000001 	b	742c <entry_94+0xac>
    742c:	14000001 	b	7430 <entry_94+0xb0>
    7430:	14000001 	b	7434 <entry_94+0xb4>
    7434:	14000001 	b	7438 <entry_94+0xb8>
    7438:	14000001 	b	743c <entry_94+0xbc>
    743c:	14000001 	b	7440 <entry_94+0xc0>
    7440:	14000001 	b	7444 <entry_94+0xc4>
    7444:	14000001 	b	7448 <entry_94+0xc8>
    7448:	14000001 	b	744c <entry_94+0xcc>
    744c:	14000001 	b	7450 <entry_94+0xd0>
    7450:	14000001 	b	7454 <entry_94+0xd4>
    7454:	14000001 	b	7458 <entry_94+0xd8>
    7458:	14000001 	b	745c <entry_94+0xdc>
    745c:	14000001 	b	7460 <entry_94+0xe0>
    7460:	14000001 	b	7464 <entry_94+0xe4>
    7464:	14000001 	b	7468 <entry_94+0xe8>
    7468:	14000001 	b	746c <entry_94+0xec>
    746c:	14000001 	b	7470 <entry_94+0xf0>
    7470:	14000001 	b	7474 <entry_94+0xf4>
    7474:	14000001 	b	7478 <entry_94+0xf8>
    7478:	14000001 	b	747c <entry_94+0xfc>
    747c:	14000001 	b	7480 <entry_94+0x100>
    7480:	14000001 	b	7484 <entry_94+0x104>
    7484:	14000001 	b	7488 <entry_94+0x108>
    7488:	14000001 	b	748c <entry_94+0x10c>
    748c:	14000001 	b	7490 <entry_94+0x110>
    7490:	14000001 	b	7494 <entry_94+0x114>
    7494:	14000001 	b	7498 <entry_94+0x118>
    7498:	14000001 	b	749c <entry_94+0x11c>
    749c:	14000001 	b	74a0 <entry_94+0x120>
    74a0:	14000001 	b	74a4 <entry_94+0x124>
    74a4:	14000001 	b	74a8 <entry_94+0x128>
    74a8:	14000001 	b	74ac <entry_94+0x12c>
    74ac:	14000001 	b	74b0 <entry_94+0x130>
    74b0:	14000001 	b	74b4 <entry_94+0x134>
    74b4:	14000001 	b	74b8 <entry_94+0x138>
    74b8:	14000001 	b	74bc <entry_94+0x13c>
    74bc:	14000001 	b	74c0 <entry_94+0x140>
    74c0:	14000001 	b	74c4 <entry_94+0x144>
    74c4:	14000001 	b	74c8 <entry_94+0x148>
    74c8:	14000001 	b	74cc <entry_94+0x14c>
    74cc:	14000001 	b	74d0 <entry_94+0x150>
    74d0:	14000001 	b	74d4 <entry_94+0x154>
    74d4:	14000001 	b	74d8 <entry_94+0x158>
    74d8:	14000001 	b	74dc <entry_94+0x15c>
    74dc:	14000001 	b	74e0 <entry_94+0x160>
    74e0:	14000001 	b	74e4 <entry_94+0x164>
    74e4:	14000001 	b	74e8 <entry_94+0x168>
    74e8:	14000001 	b	74ec <entry_94+0x16c>
    74ec:	14000001 	b	74f0 <entry_94+0x170>
    74f0:	14000001 	b	74f4 <entry_94+0x174>
    74f4:	14000001 	b	74f8 <entry_94+0x178>
    74f8:	17ffeb90 	b	2338 <dummy_done>
    74fc:	d503201f 	nop

0000000000007500 <entry_95>:
    7500:	14000001 	b	7504 <entry_95+0x4>
    7504:	14000001 	b	7508 <entry_95+0x8>
    7508:	14000001 	b	750c <entry_95+0xc>
    750c:	14000001 	b	7510 <entry_95+0x10>
    7510:	14000001 	b	7514 <entry_95+0x14>
    7514:	14000001 	b	7518 <entry_95+0x18>
    7518:	14000001 	b	751c <entry_95+0x1c>
    751c:	14000001 	b	7520 <entry_95+0x20>
    7520:	14000001 	b	7524 <entry_95+0x24>
    7524:	14000001 	b	7528 <entry_95+0x28>
    7528:	14000001 	b	752c <entry_95+0x2c>
    752c:	14000001 	b	7530 <entry_95+0x30>
    7530:	14000001 	b	7534 <entry_95+0x34>
    7534:	14000001 	b	7538 <entry_95+0x38>
    7538:	14000001 	b	753c <entry_95+0x3c>
    753c:	14000001 	b	7540 <entry_95+0x40>
    7540:	14000001 	b	7544 <entry_95+0x44>
    7544:	14000001 	b	7548 <entry_95+0x48>
    7548:	14000001 	b	754c <entry_95+0x4c>
    754c:	14000001 	b	7550 <entry_95+0x50>
    7550:	14000001 	b	7554 <entry_95+0x54>
    7554:	14000001 	b	7558 <entry_95+0x58>
    7558:	14000001 	b	755c <entry_95+0x5c>
    755c:	14000001 	b	7560 <entry_95+0x60>
    7560:	14000001 	b	7564 <entry_95+0x64>
    7564:	14000001 	b	7568 <entry_95+0x68>
    7568:	14000001 	b	756c <entry_95+0x6c>
    756c:	14000001 	b	7570 <entry_95+0x70>
    7570:	14000001 	b	7574 <entry_95+0x74>
    7574:	14000001 	b	7578 <entry_95+0x78>
    7578:	14000001 	b	757c <entry_95+0x7c>
    757c:	14000001 	b	7580 <entry_95+0x80>
    7580:	14000001 	b	7584 <entry_95+0x84>
    7584:	14000001 	b	7588 <entry_95+0x88>
    7588:	14000001 	b	758c <entry_95+0x8c>
    758c:	14000001 	b	7590 <entry_95+0x90>
    7590:	14000001 	b	7594 <entry_95+0x94>
    7594:	14000001 	b	7598 <entry_95+0x98>
    7598:	14000001 	b	759c <entry_95+0x9c>
    759c:	14000001 	b	75a0 <entry_95+0xa0>
    75a0:	14000001 	b	75a4 <entry_95+0xa4>
    75a4:	14000001 	b	75a8 <entry_95+0xa8>
    75a8:	14000001 	b	75ac <entry_95+0xac>
    75ac:	14000001 	b	75b0 <entry_95+0xb0>
    75b0:	14000001 	b	75b4 <entry_95+0xb4>
    75b4:	14000001 	b	75b8 <entry_95+0xb8>
    75b8:	14000001 	b	75bc <entry_95+0xbc>
    75bc:	14000001 	b	75c0 <entry_95+0xc0>
    75c0:	14000001 	b	75c4 <entry_95+0xc4>
    75c4:	14000001 	b	75c8 <entry_95+0xc8>
    75c8:	14000001 	b	75cc <entry_95+0xcc>
    75cc:	14000001 	b	75d0 <entry_95+0xd0>
    75d0:	14000001 	b	75d4 <entry_95+0xd4>
    75d4:	14000001 	b	75d8 <entry_95+0xd8>
    75d8:	14000001 	b	75dc <entry_95+0xdc>
    75dc:	14000001 	b	75e0 <entry_95+0xe0>
    75e0:	14000001 	b	75e4 <entry_95+0xe4>
    75e4:	14000001 	b	75e8 <entry_95+0xe8>
    75e8:	14000001 	b	75ec <entry_95+0xec>
    75ec:	14000001 	b	75f0 <entry_95+0xf0>
    75f0:	14000001 	b	75f4 <entry_95+0xf4>
    75f4:	14000001 	b	75f8 <entry_95+0xf8>
    75f8:	14000001 	b	75fc <entry_95+0xfc>
    75fc:	14000001 	b	7600 <entry_95+0x100>
    7600:	14000001 	b	7604 <entry_95+0x104>
    7604:	14000001 	b	7608 <entry_95+0x108>
    7608:	14000001 	b	760c <entry_95+0x10c>
    760c:	14000001 	b	7610 <entry_95+0x110>
    7610:	14000001 	b	7614 <entry_95+0x114>
    7614:	14000001 	b	7618 <entry_95+0x118>
    7618:	14000001 	b	761c <entry_95+0x11c>
    761c:	14000001 	b	7620 <entry_95+0x120>
    7620:	14000001 	b	7624 <entry_95+0x124>
    7624:	14000001 	b	7628 <entry_95+0x128>
    7628:	14000001 	b	762c <entry_95+0x12c>
    762c:	14000001 	b	7630 <entry_95+0x130>
    7630:	14000001 	b	7634 <entry_95+0x134>
    7634:	14000001 	b	7638 <entry_95+0x138>
    7638:	14000001 	b	763c <entry_95+0x13c>
    763c:	14000001 	b	7640 <entry_95+0x140>
    7640:	14000001 	b	7644 <entry_95+0x144>
    7644:	14000001 	b	7648 <entry_95+0x148>
    7648:	14000001 	b	764c <entry_95+0x14c>
    764c:	14000001 	b	7650 <entry_95+0x150>
    7650:	14000001 	b	7654 <entry_95+0x154>
    7654:	14000001 	b	7658 <entry_95+0x158>
    7658:	14000001 	b	765c <entry_95+0x15c>
    765c:	14000001 	b	7660 <entry_95+0x160>
    7660:	14000001 	b	7664 <entry_95+0x164>
    7664:	14000001 	b	7668 <entry_95+0x168>
    7668:	14000001 	b	766c <entry_95+0x16c>
    766c:	14000001 	b	7670 <entry_95+0x170>
    7670:	14000001 	b	7674 <entry_95+0x174>
    7674:	14000001 	b	7678 <entry_95+0x178>
    7678:	14000001 	b	767c <entry_95+0x17c>
    767c:	17ffeb2f 	b	2338 <dummy_done>

0000000000007680 <entry_96>:
    7680:	14000001 	b	7684 <entry_96+0x4>
    7684:	14000001 	b	7688 <entry_96+0x8>
    7688:	14000001 	b	768c <entry_96+0xc>
    768c:	14000001 	b	7690 <entry_96+0x10>
    7690:	14000001 	b	7694 <entry_96+0x14>
    7694:	14000001 	b	7698 <entry_96+0x18>
    7698:	14000001 	b	769c <entry_96+0x1c>
    769c:	14000001 	b	76a0 <entry_96+0x20>
    76a0:	14000001 	b	76a4 <entry_96+0x24>
    76a4:	14000001 	b	76a8 <entry_96+0x28>
    76a8:	14000001 	b	76ac <entry_96+0x2c>
    76ac:	14000001 	b	76b0 <entry_96+0x30>
    76b0:	14000001 	b	76b4 <entry_96+0x34>
    76b4:	14000001 	b	76b8 <entry_96+0x38>
    76b8:	14000001 	b	76bc <entry_96+0x3c>
    76bc:	14000001 	b	76c0 <entry_96+0x40>
    76c0:	14000001 	b	76c4 <entry_96+0x44>
    76c4:	14000001 	b	76c8 <entry_96+0x48>
    76c8:	14000001 	b	76cc <entry_96+0x4c>
    76cc:	14000001 	b	76d0 <entry_96+0x50>
    76d0:	14000001 	b	76d4 <entry_96+0x54>
    76d4:	14000001 	b	76d8 <entry_96+0x58>
    76d8:	14000001 	b	76dc <entry_96+0x5c>
    76dc:	14000001 	b	76e0 <entry_96+0x60>
    76e0:	14000001 	b	76e4 <entry_96+0x64>
    76e4:	14000001 	b	76e8 <entry_96+0x68>
    76e8:	14000001 	b	76ec <entry_96+0x6c>
    76ec:	14000001 	b	76f0 <entry_96+0x70>
    76f0:	14000001 	b	76f4 <entry_96+0x74>
    76f4:	14000001 	b	76f8 <entry_96+0x78>
    76f8:	14000001 	b	76fc <entry_96+0x7c>
    76fc:	14000001 	b	7700 <entry_96+0x80>
    7700:	14000001 	b	7704 <entry_96+0x84>
    7704:	14000001 	b	7708 <entry_96+0x88>
    7708:	14000001 	b	770c <entry_96+0x8c>
    770c:	14000001 	b	7710 <entry_96+0x90>
    7710:	14000001 	b	7714 <entry_96+0x94>
    7714:	14000001 	b	7718 <entry_96+0x98>
    7718:	14000001 	b	771c <entry_96+0x9c>
    771c:	14000001 	b	7720 <entry_96+0xa0>
    7720:	14000001 	b	7724 <entry_96+0xa4>
    7724:	14000001 	b	7728 <entry_96+0xa8>
    7728:	14000001 	b	772c <entry_96+0xac>
    772c:	14000001 	b	7730 <entry_96+0xb0>
    7730:	14000001 	b	7734 <entry_96+0xb4>
    7734:	14000001 	b	7738 <entry_96+0xb8>
    7738:	14000001 	b	773c <entry_96+0xbc>
    773c:	14000001 	b	7740 <entry_96+0xc0>
    7740:	14000001 	b	7744 <entry_96+0xc4>
    7744:	14000001 	b	7748 <entry_96+0xc8>
    7748:	14000001 	b	774c <entry_96+0xcc>
    774c:	14000001 	b	7750 <entry_96+0xd0>
    7750:	14000001 	b	7754 <entry_96+0xd4>
    7754:	14000001 	b	7758 <entry_96+0xd8>
    7758:	14000001 	b	775c <entry_96+0xdc>
    775c:	14000001 	b	7760 <entry_96+0xe0>
    7760:	14000001 	b	7764 <entry_96+0xe4>
    7764:	14000001 	b	7768 <entry_96+0xe8>
    7768:	14000001 	b	776c <entry_96+0xec>
    776c:	14000001 	b	7770 <entry_96+0xf0>
    7770:	14000001 	b	7774 <entry_96+0xf4>
    7774:	14000001 	b	7778 <entry_96+0xf8>
    7778:	14000001 	b	777c <entry_96+0xfc>
    777c:	14000001 	b	7780 <entry_96+0x100>
    7780:	14000001 	b	7784 <entry_96+0x104>
    7784:	14000001 	b	7788 <entry_96+0x108>
    7788:	14000001 	b	778c <entry_96+0x10c>
    778c:	14000001 	b	7790 <entry_96+0x110>
    7790:	14000001 	b	7794 <entry_96+0x114>
    7794:	14000001 	b	7798 <entry_96+0x118>
    7798:	14000001 	b	779c <entry_96+0x11c>
    779c:	14000001 	b	77a0 <entry_96+0x120>
    77a0:	14000001 	b	77a4 <entry_96+0x124>
    77a4:	14000001 	b	77a8 <entry_96+0x128>
    77a8:	14000001 	b	77ac <entry_96+0x12c>
    77ac:	14000001 	b	77b0 <entry_96+0x130>
    77b0:	14000001 	b	77b4 <entry_96+0x134>
    77b4:	14000001 	b	77b8 <entry_96+0x138>
    77b8:	14000001 	b	77bc <entry_96+0x13c>
    77bc:	14000001 	b	77c0 <entry_96+0x140>
    77c0:	14000001 	b	77c4 <entry_96+0x144>
    77c4:	14000001 	b	77c8 <entry_96+0x148>
    77c8:	14000001 	b	77cc <entry_96+0x14c>
    77cc:	14000001 	b	77d0 <entry_96+0x150>
    77d0:	14000001 	b	77d4 <entry_96+0x154>
    77d4:	14000001 	b	77d8 <entry_96+0x158>
    77d8:	14000001 	b	77dc <entry_96+0x15c>
    77dc:	14000001 	b	77e0 <entry_96+0x160>
    77e0:	14000001 	b	77e4 <entry_96+0x164>
    77e4:	14000001 	b	77e8 <entry_96+0x168>
    77e8:	14000001 	b	77ec <entry_96+0x16c>
    77ec:	14000001 	b	77f0 <entry_96+0x170>
    77f0:	14000001 	b	77f4 <entry_96+0x174>
    77f4:	14000001 	b	77f8 <entry_96+0x178>
    77f8:	14000001 	b	77fc <entry_96+0x17c>
    77fc:	14000001 	b	7800 <entry_96+0x180>
    7800:	17ffeace 	b	2338 <dummy_done>
    7804:	d503201f 	nop
    7808:	d503201f 	nop
    780c:	d503201f 	nop

0000000000007810 <entry_97>:
    7810:	14000001 	b	7814 <entry_97+0x4>
    7814:	14000001 	b	7818 <entry_97+0x8>
    7818:	14000001 	b	781c <entry_97+0xc>
    781c:	14000001 	b	7820 <entry_97+0x10>
    7820:	14000001 	b	7824 <entry_97+0x14>
    7824:	14000001 	b	7828 <entry_97+0x18>
    7828:	14000001 	b	782c <entry_97+0x1c>
    782c:	14000001 	b	7830 <entry_97+0x20>
    7830:	14000001 	b	7834 <entry_97+0x24>
    7834:	14000001 	b	7838 <entry_97+0x28>
    7838:	14000001 	b	783c <entry_97+0x2c>
    783c:	14000001 	b	7840 <entry_97+0x30>
    7840:	14000001 	b	7844 <entry_97+0x34>
    7844:	14000001 	b	7848 <entry_97+0x38>
    7848:	14000001 	b	784c <entry_97+0x3c>
    784c:	14000001 	b	7850 <entry_97+0x40>
    7850:	14000001 	b	7854 <entry_97+0x44>
    7854:	14000001 	b	7858 <entry_97+0x48>
    7858:	14000001 	b	785c <entry_97+0x4c>
    785c:	14000001 	b	7860 <entry_97+0x50>
    7860:	14000001 	b	7864 <entry_97+0x54>
    7864:	14000001 	b	7868 <entry_97+0x58>
    7868:	14000001 	b	786c <entry_97+0x5c>
    786c:	14000001 	b	7870 <entry_97+0x60>
    7870:	14000001 	b	7874 <entry_97+0x64>
    7874:	14000001 	b	7878 <entry_97+0x68>
    7878:	14000001 	b	787c <entry_97+0x6c>
    787c:	14000001 	b	7880 <entry_97+0x70>
    7880:	14000001 	b	7884 <entry_97+0x74>
    7884:	14000001 	b	7888 <entry_97+0x78>
    7888:	14000001 	b	788c <entry_97+0x7c>
    788c:	14000001 	b	7890 <entry_97+0x80>
    7890:	14000001 	b	7894 <entry_97+0x84>
    7894:	14000001 	b	7898 <entry_97+0x88>
    7898:	14000001 	b	789c <entry_97+0x8c>
    789c:	14000001 	b	78a0 <entry_97+0x90>
    78a0:	14000001 	b	78a4 <entry_97+0x94>
    78a4:	14000001 	b	78a8 <entry_97+0x98>
    78a8:	14000001 	b	78ac <entry_97+0x9c>
    78ac:	14000001 	b	78b0 <entry_97+0xa0>
    78b0:	14000001 	b	78b4 <entry_97+0xa4>
    78b4:	14000001 	b	78b8 <entry_97+0xa8>
    78b8:	14000001 	b	78bc <entry_97+0xac>
    78bc:	14000001 	b	78c0 <entry_97+0xb0>
    78c0:	14000001 	b	78c4 <entry_97+0xb4>
    78c4:	14000001 	b	78c8 <entry_97+0xb8>
    78c8:	14000001 	b	78cc <entry_97+0xbc>
    78cc:	14000001 	b	78d0 <entry_97+0xc0>
    78d0:	14000001 	b	78d4 <entry_97+0xc4>
    78d4:	14000001 	b	78d8 <entry_97+0xc8>
    78d8:	14000001 	b	78dc <entry_97+0xcc>
    78dc:	14000001 	b	78e0 <entry_97+0xd0>
    78e0:	14000001 	b	78e4 <entry_97+0xd4>
    78e4:	14000001 	b	78e8 <entry_97+0xd8>
    78e8:	14000001 	b	78ec <entry_97+0xdc>
    78ec:	14000001 	b	78f0 <entry_97+0xe0>
    78f0:	14000001 	b	78f4 <entry_97+0xe4>
    78f4:	14000001 	b	78f8 <entry_97+0xe8>
    78f8:	14000001 	b	78fc <entry_97+0xec>
    78fc:	14000001 	b	7900 <entry_97+0xf0>
    7900:	14000001 	b	7904 <entry_97+0xf4>
    7904:	14000001 	b	7908 <entry_97+0xf8>
    7908:	14000001 	b	790c <entry_97+0xfc>
    790c:	14000001 	b	7910 <entry_97+0x100>
    7910:	14000001 	b	7914 <entry_97+0x104>
    7914:	14000001 	b	7918 <entry_97+0x108>
    7918:	14000001 	b	791c <entry_97+0x10c>
    791c:	14000001 	b	7920 <entry_97+0x110>
    7920:	14000001 	b	7924 <entry_97+0x114>
    7924:	14000001 	b	7928 <entry_97+0x118>
    7928:	14000001 	b	792c <entry_97+0x11c>
    792c:	14000001 	b	7930 <entry_97+0x120>
    7930:	14000001 	b	7934 <entry_97+0x124>
    7934:	14000001 	b	7938 <entry_97+0x128>
    7938:	14000001 	b	793c <entry_97+0x12c>
    793c:	14000001 	b	7940 <entry_97+0x130>
    7940:	14000001 	b	7944 <entry_97+0x134>
    7944:	14000001 	b	7948 <entry_97+0x138>
    7948:	14000001 	b	794c <entry_97+0x13c>
    794c:	14000001 	b	7950 <entry_97+0x140>
    7950:	14000001 	b	7954 <entry_97+0x144>
    7954:	14000001 	b	7958 <entry_97+0x148>
    7958:	14000001 	b	795c <entry_97+0x14c>
    795c:	14000001 	b	7960 <entry_97+0x150>
    7960:	14000001 	b	7964 <entry_97+0x154>
    7964:	14000001 	b	7968 <entry_97+0x158>
    7968:	14000001 	b	796c <entry_97+0x15c>
    796c:	14000001 	b	7970 <entry_97+0x160>
    7970:	14000001 	b	7974 <entry_97+0x164>
    7974:	14000001 	b	7978 <entry_97+0x168>
    7978:	14000001 	b	797c <entry_97+0x16c>
    797c:	14000001 	b	7980 <entry_97+0x170>
    7980:	14000001 	b	7984 <entry_97+0x174>
    7984:	14000001 	b	7988 <entry_97+0x178>
    7988:	14000001 	b	798c <entry_97+0x17c>
    798c:	14000001 	b	7990 <entry_97+0x180>
    7990:	14000001 	b	7994 <entry_97+0x184>
    7994:	17ffea69 	b	2338 <dummy_done>
    7998:	d503201f 	nop
    799c:	d503201f 	nop

00000000000079a0 <entry_98>:
    79a0:	14000001 	b	79a4 <entry_98+0x4>
    79a4:	14000001 	b	79a8 <entry_98+0x8>
    79a8:	14000001 	b	79ac <entry_98+0xc>
    79ac:	14000001 	b	79b0 <entry_98+0x10>
    79b0:	14000001 	b	79b4 <entry_98+0x14>
    79b4:	14000001 	b	79b8 <entry_98+0x18>
    79b8:	14000001 	b	79bc <entry_98+0x1c>
    79bc:	14000001 	b	79c0 <entry_98+0x20>
    79c0:	14000001 	b	79c4 <entry_98+0x24>
    79c4:	14000001 	b	79c8 <entry_98+0x28>
    79c8:	14000001 	b	79cc <entry_98+0x2c>
    79cc:	14000001 	b	79d0 <entry_98+0x30>
    79d0:	14000001 	b	79d4 <entry_98+0x34>
    79d4:	14000001 	b	79d8 <entry_98+0x38>
    79d8:	14000001 	b	79dc <entry_98+0x3c>
    79dc:	14000001 	b	79e0 <entry_98+0x40>
    79e0:	14000001 	b	79e4 <entry_98+0x44>
    79e4:	14000001 	b	79e8 <entry_98+0x48>
    79e8:	14000001 	b	79ec <entry_98+0x4c>
    79ec:	14000001 	b	79f0 <entry_98+0x50>
    79f0:	14000001 	b	79f4 <entry_98+0x54>
    79f4:	14000001 	b	79f8 <entry_98+0x58>
    79f8:	14000001 	b	79fc <entry_98+0x5c>
    79fc:	14000001 	b	7a00 <entry_98+0x60>
    7a00:	14000001 	b	7a04 <entry_98+0x64>
    7a04:	14000001 	b	7a08 <entry_98+0x68>
    7a08:	14000001 	b	7a0c <entry_98+0x6c>
    7a0c:	14000001 	b	7a10 <entry_98+0x70>
    7a10:	14000001 	b	7a14 <entry_98+0x74>
    7a14:	14000001 	b	7a18 <entry_98+0x78>
    7a18:	14000001 	b	7a1c <entry_98+0x7c>
    7a1c:	14000001 	b	7a20 <entry_98+0x80>
    7a20:	14000001 	b	7a24 <entry_98+0x84>
    7a24:	14000001 	b	7a28 <entry_98+0x88>
    7a28:	14000001 	b	7a2c <entry_98+0x8c>
    7a2c:	14000001 	b	7a30 <entry_98+0x90>
    7a30:	14000001 	b	7a34 <entry_98+0x94>
    7a34:	14000001 	b	7a38 <entry_98+0x98>
    7a38:	14000001 	b	7a3c <entry_98+0x9c>
    7a3c:	14000001 	b	7a40 <entry_98+0xa0>
    7a40:	14000001 	b	7a44 <entry_98+0xa4>
    7a44:	14000001 	b	7a48 <entry_98+0xa8>
    7a48:	14000001 	b	7a4c <entry_98+0xac>
    7a4c:	14000001 	b	7a50 <entry_98+0xb0>
    7a50:	14000001 	b	7a54 <entry_98+0xb4>
    7a54:	14000001 	b	7a58 <entry_98+0xb8>
    7a58:	14000001 	b	7a5c <entry_98+0xbc>
    7a5c:	14000001 	b	7a60 <entry_98+0xc0>
    7a60:	14000001 	b	7a64 <entry_98+0xc4>
    7a64:	14000001 	b	7a68 <entry_98+0xc8>
    7a68:	14000001 	b	7a6c <entry_98+0xcc>
    7a6c:	14000001 	b	7a70 <entry_98+0xd0>
    7a70:	14000001 	b	7a74 <entry_98+0xd4>
    7a74:	14000001 	b	7a78 <entry_98+0xd8>
    7a78:	14000001 	b	7a7c <entry_98+0xdc>
    7a7c:	14000001 	b	7a80 <entry_98+0xe0>
    7a80:	14000001 	b	7a84 <entry_98+0xe4>
    7a84:	14000001 	b	7a88 <entry_98+0xe8>
    7a88:	14000001 	b	7a8c <entry_98+0xec>
    7a8c:	14000001 	b	7a90 <entry_98+0xf0>
    7a90:	14000001 	b	7a94 <entry_98+0xf4>
    7a94:	14000001 	b	7a98 <entry_98+0xf8>
    7a98:	14000001 	b	7a9c <entry_98+0xfc>
    7a9c:	14000001 	b	7aa0 <entry_98+0x100>
    7aa0:	14000001 	b	7aa4 <entry_98+0x104>
    7aa4:	14000001 	b	7aa8 <entry_98+0x108>
    7aa8:	14000001 	b	7aac <entry_98+0x10c>
    7aac:	14000001 	b	7ab0 <entry_98+0x110>
    7ab0:	14000001 	b	7ab4 <entry_98+0x114>
    7ab4:	14000001 	b	7ab8 <entry_98+0x118>
    7ab8:	14000001 	b	7abc <entry_98+0x11c>
    7abc:	14000001 	b	7ac0 <entry_98+0x120>
    7ac0:	14000001 	b	7ac4 <entry_98+0x124>
    7ac4:	14000001 	b	7ac8 <entry_98+0x128>
    7ac8:	14000001 	b	7acc <entry_98+0x12c>
    7acc:	14000001 	b	7ad0 <entry_98+0x130>
    7ad0:	14000001 	b	7ad4 <entry_98+0x134>
    7ad4:	14000001 	b	7ad8 <entry_98+0x138>
    7ad8:	14000001 	b	7adc <entry_98+0x13c>
    7adc:	14000001 	b	7ae0 <entry_98+0x140>
    7ae0:	14000001 	b	7ae4 <entry_98+0x144>
    7ae4:	14000001 	b	7ae8 <entry_98+0x148>
    7ae8:	14000001 	b	7aec <entry_98+0x14c>
    7aec:	14000001 	b	7af0 <entry_98+0x150>
    7af0:	14000001 	b	7af4 <entry_98+0x154>
    7af4:	14000001 	b	7af8 <entry_98+0x158>
    7af8:	14000001 	b	7afc <entry_98+0x15c>
    7afc:	14000001 	b	7b00 <entry_98+0x160>
    7b00:	14000001 	b	7b04 <entry_98+0x164>
    7b04:	14000001 	b	7b08 <entry_98+0x168>
    7b08:	14000001 	b	7b0c <entry_98+0x16c>
    7b0c:	14000001 	b	7b10 <entry_98+0x170>
    7b10:	14000001 	b	7b14 <entry_98+0x174>
    7b14:	14000001 	b	7b18 <entry_98+0x178>
    7b18:	14000001 	b	7b1c <entry_98+0x17c>
    7b1c:	14000001 	b	7b20 <entry_98+0x180>
    7b20:	14000001 	b	7b24 <entry_98+0x184>
    7b24:	14000001 	b	7b28 <entry_98+0x188>
    7b28:	17ffea04 	b	2338 <dummy_done>
    7b2c:	d503201f 	nop

0000000000007b30 <entry_99>:
    7b30:	14000001 	b	7b34 <entry_99+0x4>
    7b34:	14000001 	b	7b38 <entry_99+0x8>
    7b38:	14000001 	b	7b3c <entry_99+0xc>
    7b3c:	14000001 	b	7b40 <entry_99+0x10>
    7b40:	14000001 	b	7b44 <entry_99+0x14>
    7b44:	14000001 	b	7b48 <entry_99+0x18>
    7b48:	14000001 	b	7b4c <entry_99+0x1c>
    7b4c:	14000001 	b	7b50 <entry_99+0x20>
    7b50:	14000001 	b	7b54 <entry_99+0x24>
    7b54:	14000001 	b	7b58 <entry_99+0x28>
    7b58:	14000001 	b	7b5c <entry_99+0x2c>
    7b5c:	14000001 	b	7b60 <entry_99+0x30>
    7b60:	14000001 	b	7b64 <entry_99+0x34>
    7b64:	14000001 	b	7b68 <entry_99+0x38>
    7b68:	14000001 	b	7b6c <entry_99+0x3c>
    7b6c:	14000001 	b	7b70 <entry_99+0x40>
    7b70:	14000001 	b	7b74 <entry_99+0x44>
    7b74:	14000001 	b	7b78 <entry_99+0x48>
    7b78:	14000001 	b	7b7c <entry_99+0x4c>
    7b7c:	14000001 	b	7b80 <entry_99+0x50>
    7b80:	14000001 	b	7b84 <entry_99+0x54>
    7b84:	14000001 	b	7b88 <entry_99+0x58>
    7b88:	14000001 	b	7b8c <entry_99+0x5c>
    7b8c:	14000001 	b	7b90 <entry_99+0x60>
    7b90:	14000001 	b	7b94 <entry_99+0x64>
    7b94:	14000001 	b	7b98 <entry_99+0x68>
    7b98:	14000001 	b	7b9c <entry_99+0x6c>
    7b9c:	14000001 	b	7ba0 <entry_99+0x70>
    7ba0:	14000001 	b	7ba4 <entry_99+0x74>
    7ba4:	14000001 	b	7ba8 <entry_99+0x78>
    7ba8:	14000001 	b	7bac <entry_99+0x7c>
    7bac:	14000001 	b	7bb0 <entry_99+0x80>
    7bb0:	14000001 	b	7bb4 <entry_99+0x84>
    7bb4:	14000001 	b	7bb8 <entry_99+0x88>
    7bb8:	14000001 	b	7bbc <entry_99+0x8c>
    7bbc:	14000001 	b	7bc0 <entry_99+0x90>
    7bc0:	14000001 	b	7bc4 <entry_99+0x94>
    7bc4:	14000001 	b	7bc8 <entry_99+0x98>
    7bc8:	14000001 	b	7bcc <entry_99+0x9c>
    7bcc:	14000001 	b	7bd0 <entry_99+0xa0>
    7bd0:	14000001 	b	7bd4 <entry_99+0xa4>
    7bd4:	14000001 	b	7bd8 <entry_99+0xa8>
    7bd8:	14000001 	b	7bdc <entry_99+0xac>
    7bdc:	14000001 	b	7be0 <entry_99+0xb0>
    7be0:	14000001 	b	7be4 <entry_99+0xb4>
    7be4:	14000001 	b	7be8 <entry_99+0xb8>
    7be8:	14000001 	b	7bec <entry_99+0xbc>
    7bec:	14000001 	b	7bf0 <entry_99+0xc0>
    7bf0:	14000001 	b	7bf4 <entry_99+0xc4>
    7bf4:	14000001 	b	7bf8 <entry_99+0xc8>
    7bf8:	14000001 	b	7bfc <entry_99+0xcc>
    7bfc:	14000001 	b	7c00 <entry_99+0xd0>
    7c00:	14000001 	b	7c04 <entry_99+0xd4>
    7c04:	14000001 	b	7c08 <entry_99+0xd8>
    7c08:	14000001 	b	7c0c <entry_99+0xdc>
    7c0c:	14000001 	b	7c10 <entry_99+0xe0>
    7c10:	14000001 	b	7c14 <entry_99+0xe4>
    7c14:	14000001 	b	7c18 <entry_99+0xe8>
    7c18:	14000001 	b	7c1c <entry_99+0xec>
    7c1c:	14000001 	b	7c20 <entry_99+0xf0>
    7c20:	14000001 	b	7c24 <entry_99+0xf4>
    7c24:	14000001 	b	7c28 <entry_99+0xf8>
    7c28:	14000001 	b	7c2c <entry_99+0xfc>
    7c2c:	14000001 	b	7c30 <entry_99+0x100>
